(dp1
S'weight'
p2
(dp3
S'type'
p4
S'double'
p5
sS'sortable'
p6
I5
sS'sql'
p7
S'DOUBLE'
p8
ssS'closestdescendantlabel'
p9
(dp10
S'type'
p11
S'string'
p12
sS'sortable'
p13
I9
sS'sql'
p14
S'VARCHAR(255)'
p15
ssS'text'
p16
(dp17
S'sortable'
p18
I4
sS'type'
p19
S'string'
p20
sS'sql'
p21
S'VARCHAR(255)'
p22
ssS'tree'
p23
(dp24
g18
I2
sg19
S'integer'
p25
sg21
S'INT'
p26
ssS'nodeid'
p27
(dp28
S'sortable'
p29
I4
sS'type'
p30
S'integer'
p31
sS'sql'
p32
S'INT'
p33
ssS'descendanttipcount'
p34
(dp35
S'sortable'
p36
I8
sS'type'
p37
S'integer'
p38
sS'sql'
p39
S'INT'
p40
ssS'longesttraversal'
p41
(dp42
S'type'
p43
S'double'
p44
sS'sortable'
p45
I7
sS'sql'
p46
S'DOUBLE'
p47
ssS'treetype'
p48
(dp49
g18
I3
sg19
g20
sg21
S'VARCHAR(255)'
p50
ssS'id'
p51
(dp52
g18
I1
sg19
S'id'
p53
sg21
S'INT AUTO_INCREMENT NOT NULL'
p54
ss.