(dp1
S'uploaded'
p2
(dp3
S'type'
p4
S'datetime'
p5
sS'sortable'
p6
I10
sS'sql'
p7
S'DATETIME NOT NULL'
p8
ssS'comment'
p9
(dp10
g4
S'text'
p11
sg6
I9
sg7
S'LONGTEXT'
p12
ssS'description'
p13
(dp14
g4
S'string'
p15
sg6
I3
sg7
S'VARCHAR(255)'
p16
ssS'study'
p17
(dp18
g4
S'reference study'
p19
sg6
I2
sg7
S'INT, INDEX study__idx (study), FOREIGN KEY (study) REFERENCES study(id) ON DELETE NO ACTION'
p20
ssS'filename'
p21
(dp22
g4
g15
sg6
I5
sg7
S'VARCHAR(255)'
p23
ssS'source'
p24
(dp25
g4
g15
sg6
I4
sg7
S'VARCHAR(255)'
p26
ssS'file'
p27
(dp28
g4
S'upload'
p29
sg6
I6
sg7
S'VARCHAR(255)'
p30
ssS'contributor'
p31
(dp32
g4
g15
sg6
I8
sg7
S'VARCHAR(128) NOT NULL'
p33
ssS'data'
p34
(dp35
g4
S'blob'
p36
sg6
I7
sg7
S'LONGBLOB'
p37
ssS'id'
p38
(dp39
g4
S'id'
p40
sg6
I1
sg7
S'INT AUTO_INCREMENT NOT NULL'
p41
ss.