(dp1
S'treetype'
p2
(dp3
S'type'
p4
S'string'
p5
sS'sortable'
p6
I3
sS'sql'
p7
S'VARCHAR(255)'
p8
ssS'creationdate'
p9
(dp10
S'sortable'
p11
I4
sS'type'
p12
S'datetime'
p13
sS'sql'
p14
S'DATETIME'
p15
ssS'nodeid'
p16
(dp17
g11
I2
sg12
S'reference snode'
p18
sg14
S'INT, INDEX nodeId__idx (nodeId), FOREIGN KEY (nodeId) REFERENCES snode(id) ON DELETE CASCADE'
p19
ssS'name'
p20
(dp21
g11
I3
sg12
S'string'
p22
sg14
S'VARCHAR(255)'
p23
ssS'id'
p24
(dp25
g11
I1
sg12
S'id'
p26
sg14
S'INT AUTO_INCREMENT NOT NULL'
p27
ss.