(dp1
S'comment'
p2
(dp3
S'type'
p4
S'text'
p5
sS'sortable'
p6
I5
sS'sql'
p7
S'LONGTEXT'
p8
ssS'contributor'
p9
(dp10
g4
S'string'
p11
sg6
I2
sg7
S'VARCHAR(128)'
p12
ssS'title'
p13
(dp14
g4
g11
sg6
I4
sg7
S'VARCHAR(255)'
p15
ssS'date'
p16
(dp17
g4
S'datetime'
p18
sg6
I6
sg7
S'DATETIME'
p19
ssS'mtime'
p20
(dp21
g4
g18
sg6
I3
sg7
S'DATETIME'
p22
ssS'id'
p23
(dp24
g4
S'id'
p25
sg6
I1
sg7
S'INT AUTO_INCREMENT NOT NULL'
p26
ss.