(dp1
S'comment'
p2
(dp3
S'type'
p4
S'text'
p5
sS'sortable'
p6
I8
sS'sql'
p7
S'LONGTEXT'
p8
ssS'uploaded'
p9
(dp10
g4
S'datetime'
p11
sg6
I9
sg7
S'DATETIME NOT NULL'
p12
ssS'treebase_id'
p13
(dp14
g4
S'integer'
p15
sg6
I10
sg7
S'INT'
p16
ssS'doi'
p17
(dp18
g4
S'string'
p19
sg6
I4
sg7
S'VARCHAR(255)'
p20
ssS'citation'
p21
(dp22
g4
g5
sg6
I3
sg7
S'LONGTEXT NOT NULL'
p23
ssS'label'
p24
(dp25
g4
g19
sg6
I5
sg7
S'VARCHAR(255)'
p26
ssS'focal_clade'
p27
(dp28
g4
S'reference taxon'
p29
sg6
I2
sg7
S'INT, INDEX focal_clade__idx (focal_clade), FOREIGN KEY (focal_clade) REFERENCES taxon(id) ON DELETE NO ACTION'
p30
ssS'contributor'
p31
(dp32
g4
g19
sg6
I7
sg7
S'VARCHAR(128) NOT NULL'
p33
ssS'id'
p34
(dp35
g4
S'id'
p36
sg6
I1
sg7
S'INT AUTO_INCREMENT NOT NULL'
p37
ssS'year_published'
p38
(dp39
g4
g15
sg6
I6
sg7
S'INT'
p40
ss.