(dp1
S'uploaded'
p2
(dp3
S'sortable'
p4
I4
sS'type'
p5
S'datetime'
p6
sS'sql'
p7
S'DATETIME NOT NULL'
p8
ssS'comment'
p9
(dp10
g4
I13
sg5
S'text'
p11
sg7
S'LONGTEXT'
p12
ssS'author_contributed'
p13
(dp14
g4
I12
sg5
S'boolean'
p15
sg7
S'CHAR(1)'
p16
ssS'study'
p17
(dp18
g4
I2
sg5
S'reference study'
p19
sg7
S'INT, INDEX study__idx (study), FOREIGN KEY (study) REFERENCES study(id) ON DELETE NO ACTION'
p20
ssS'clade_labels_comment'
p21
(dp22
g4
I7
sg5
g11
sg7
S'LONGTEXT'
p23
ssS'contributor'
p24
(dp25
g4
I3
sg5
S'string'
p26
sg7
S'VARCHAR(128) NOT NULL'
p27
ssS'newick'
p28
(dp29
g4
I5
sg5
g11
sg7
S'LONGTEXT'
p30
ssS'newick_idstr'
p31
(dp32
g4
I10
sg5
g11
sg7
S'LONGTEXT'
p33
ssS'clade_labels_represent'
p34
(dp35
g4
I6
sg5
g26
sg7
S'VARCHAR(255)'
p36
ssS'tb_tree_id'
p37
(dp38
S'type'
p39
S'string'
p40
sS'sortable'
p41
I13
sS'sql'
p42
S'VARCHAR(128)'
p43
ssS'branch_lengths_represent'
p44
(dp45
g4
I8
sg5
g26
sg7
S'VARCHAR(255)'
p46
ssS'type'
p47
(dp48
g4
I11
sg5
g26
sg7
S'VARCHAR(128) NOT NULL'
p49
ssS'id'
p50
(dp51
g4
I1
sg5
S'id'
p52
sg7
S'INT AUTO_INCREMENT NOT NULL'
p53
ssS'branch_lengths_comment'
p54
(dp55
g4
I9
sg5
g11
sg7
S'LONGTEXT'
p56
ss.