(dp1
S'treemeta'
p2
(dp3
S'sortable'
p4
I2
sS'type'
p5
S'reference treeMeta'
p6
sS'sql'
p7
S'INT, INDEX treeMeta__idx (treeMeta), FOREIGN KEY (treeMeta) REFERENCES treeMeta(id) ON DELETE CASCADE'
p8
ssS'longestlabel'
p9
(dp10
S'type'
p11
S'integer'
p12
sS'sortable'
p13
I6
sS'sql'
p14
S'INT'
p15
ssS'depth'
p16
(dp17
g4
I3
sg5
S'integer'
p18
sg7
S'INT'
p19
ssS'nodecount'
p20
(dp21
g4
I4
sg5
S'double'
p22
sg7
S'DOUBLE'
p23
ssS'tipcount'
p24
(dp25
g4
I5
sg5
g22
sg7
S'DOUBLE'
p26
ssS'id'
p27
(dp28
g4
I1
sg5
S'id'
p29
sg7
S'INT AUTO_INCREMENT NOT NULL'
p30
ss.