(dp1
S'family'
p2
(dp3
S'type'
p4
S'string'
p5
sS'sortable'
p6
I3
sS'sql'
p7
S'VARCHAR(255)'
p8
ssS'original_status'
p9
(dp10
g4
g5
sg6
I12
sg7
S'VARCHAR(255)'
p11
ssS'tpl_status'
p12
(dp13
g4
g5
sg6
I11
sg7
S'VARCHAR(255)'
p14
ssS'ipni_id'
p15
(dp16
g4
g5
sg6
I16
sg7
S'VARCHAR(255)'
p17
ssS'pub_collation'
p18
(dp19
g4
g5
sg6
I18
sg7
S'VARCHAR(255)'
p20
ssS'pub_date'
p21
(dp22
g4
g5
sg6
I20
sg7
S'VARCHAR(255)'
p23
ssS'species'
p24
(dp25
g4
g5
sg6
I7
sg7
S'VARCHAR(255)'
p26
ssS'confidence'
p27
(dp28
g4
g5
sg6
I13
sg7
S'VARCHAR(255)'
p29
ssS'publication'
p30
(dp31
g4
g5
sg6
I17
sg7
S'VARCHAR(255)'
p32
ssS'author'
p33
(dp34
g4
g5
sg6
I10
sg7
S'VARCHAR(255)'
p35
ssS'species_hybrid_marker'
p36
(dp37
g4
g5
sg6
I6
sg7
S'VARCHAR(255)'
p38
ssS'id'
p39
(dp40
g4
S'id'
p41
sg6
I1
sg7
S'INT AUTO_INCREMENT NOT NULL'
p42
ssS'major_group'
p43
(dp44
g4
g5
sg6
I2
sg7
S'VARCHAR(255)'
p45
ssS'source'
p46
(dp47
g4
g5
sg6
I14
sg7
S'VARCHAR(255)'
p48
ssS'genus_hybrid_marker'
p49
(dp50
g4
g5
sg6
I4
sg7
S'VARCHAR(255)'
p51
ssS'source_id'
p52
(dp53
g4
g5
sg6
I15
sg7
S'VARCHAR(255)'
p54
ssS'pub_page'
p55
(dp56
g4
g5
sg6
I19
sg7
S'VARCHAR(255)'
p57
ssS'genus'
p58
(dp59
g4
g5
sg6
I5
sg7
S'VARCHAR(255)'
p60
ssS'infra_rank'
p61
(dp62
g4
g5
sg6
I8
sg7
S'VARCHAR(255)'
p63
ssS'infra_epithet'
p64
(dp65
g4
g5
sg6
I9
sg7
S'VARCHAR(255)'
p66
ss.