(dp1
S'name'
p2
(dp3
S'type'
p4
S'string'
p5
sS'sortable'
p6
I7
sS'sql'
p7
S'VARCHAR(255) NOT NULL'
p8
ssS'parent'
p9
(dp10
g4
S'integer'
p11
sg6
I3
sg7
S'INT'
p12
ssS'taxid'
p13
(dp14
g4
g11
sg6
I2
sg7
S'INT NOT NULL UNIQUE'
p15
ssS'rank'
p16
(dp17
g4
g5
sg6
I8
sg7
S'VARCHAR(255)'
p18
ssS'back'
p19
(dp20
g4
g11
sg6
I5
sg7
S'INT'
p21
ssS'depth'
p22
(dp23
g4
g11
sg6
I6
sg7
S'INT'
p24
ssS'next'
p25
(dp26
g4
g11
sg6
I4
sg7
S'INT'
p27
ssS'id'
p28
(dp29
g4
S'id'
p30
sg6
I1
sg7
S'INT AUTO_INCREMENT NOT NULL'
p31
ss.