(dp1
S'role'
p2
(dp3
S'type'
p4
S'string'
p5
sS'sortable'
p6
I2
sS'sql'
p7
S'VARCHAR(255)'
p8
ssS'id'
p9
(dp10
g4
S'id'
p11
sg6
I1
sg7
S'INT AUTO_INCREMENT NOT NULL'
p12
ssS'description'
p13
(dp14
g4
S'text'
p15
sg6
I3
sg7
S'LONGTEXT'
p16
ss.