(dp1
S'study'
p2
(dp3
S'type'
p4
S'reference study'
p5
sS'sortable'
p6
I2
sS'sql'
p7
S'INT, INDEX study__idx (study), FOREIGN KEY (study) REFERENCES study(id) ON DELETE NO ACTION'
p8
ssS'taxon'
p9
(dp10
g4
S'reference taxon'
p11
sg6
I4
sg7
S'INT, INDEX taxon__idx (taxon), FOREIGN KEY (taxon) REFERENCES taxon(id) ON DELETE NO ACTION'
p12
ssS'tb_nexml_id'
p13
(dp14
S'type'
p15
S'string'
p16
sS'sortable'
p17
I5
sS'sql'
p18
S'VARCHAR(255)'
p19
ssS'id'
p20
(dp21
g4
S'id'
p22
sg6
I1
sg7
S'INT AUTO_INCREMENT NOT NULL'
p23
ssS'label'
p24
(dp25
g4
S'string'
p26
sg6
I3
sg7
S'VARCHAR(255) NOT NULL'
p27
ss.