(dp1
S'pruned'
p2
S'CHAR(1) NOT NULL'
p3
sS'taxon'
p4
S'INT, INDEX taxon__idx (taxon), FOREIGN KEY (taxon) REFERENCES taxon(id) ON DELETE NO ACTION'
p5
sS'age_max'
p6
S'DOUBLE'
p7
sS'parent'
p8
S'INT'
p9
sS'other_support'
p10
S'DOUBLE'
p11
sS'posterior_support'
p12
S'DOUBLE'
p13
sS'age'
p14
S'DOUBLE'
p15
sS'other_support_type'
p16
S'VARCHAR(512)'
p17
sS'tree'
p18
S'INT, INDEX tree__idx (tree), FOREIGN KEY (tree) REFERENCES stree(id) ON DELETE CASCADE'
p19
sS'back'
p20
S'INT'
p21
sS'next'
p22
S'INT'
p23
sS'depth'
p24
S'INT'
p25
sS'bootstrap_support'
p26
S'DOUBLE'
p27
sS'exemplar'
p28
S'VARCHAR(128)'
p29
sS'age_min'
p30
S'DOUBLE'
p31
sS'length'
p32
S'DOUBLE'
p33
sS'label'
p34
S'VARCHAR(128)'
p35
sS'mtime'
p36
S'DATETIME'
p37
sS'id'
p38
S'INT AUTO_INCREMENT NOT NULL'
p39
sS'isleaf'
p40
S'CHAR(1)'
p41
s.