(dp1
S'depth'
p2
S'INTEGER'
p3
sS'name'
p4
S'CHAR(512) NOT NULL'
p5
sS'parent'
p6
S'INTEGER'
p7
sS'id'
p8
S'INTEGER PRIMARY KEY AUTOINCREMENT'
p9
sS'next'
p10
S'INTEGER'
p11
sS'taxid'
p12
S'INTEGER NOT NULL UNIQUE'
p13
sS'rank'
p14
S'CHAR(512)'
p15
sS'back'
p16
S'INTEGER'
p17
s.