(dp1
S'confidence'
p2
S'CHAR(512)'
p3
sS'publication'
p4
S'CHAR(512)'
p5
sS'family'
p6
S'CHAR(512)'
p7
sS'author'
p8
S'CHAR(512)'
p9
sS'original_status'
p10
S'CHAR(512)'
p11
sS'infra_rank'
p12
S'CHAR(512)'
p13
sS'pub_date'
p14
S'CHAR(512)'
p15
sS'species_hybrid_marker'
p16
S'CHAR(512)'
p17
sS'species'
p18
S'CHAR(512)'
p19
sS'major_group'
p20
S'CHAR(512)'
p21
sS'source'
p22
S'CHAR(512)'
p23
sS'IPNI_id'
p24
S'CHAR(512)'
p25
sS'pub_collation'
p26
S'CHAR(512)'
p27
sS'genus_hybrid_marker'
p28
S'CHAR(512)'
p29
sS'source_id'
p30
S'INTEGER'
p31
sS'infra_epithet'
p32
S'CHAR(512)'
p33
sS'genus'
p34
S'CHAR(512)'
p35
sS'pub_page'
p36
S'CHAR(512)'
p37
sS'id'
p38
S'INTEGER PRIMARY KEY AUTOINCREMENT'
p39
sS'TPL_status'
p40
S'CHAR(512)'
p41
s.