(dp1
S'comment'
p2
S'TEXT'
p3
sS'title'
p4
S'CHAR(255)'
p5
sS'date'
p6
S'TIMESTAMP'
p7
sS'mtime'
p8
S'TIMESTAMP'
p9
sS'contributor'
p10
S'CHAR(128)'
p11
sS'id'
p12
S'INTEGER PRIMARY KEY AUTOINCREMENT'
p13
s.