(dp1
S'pruned'
p2
S'CHAR(1) NOT NULL'
p3
sS'parent'
p4
S'INTEGER'
p5
sS'other_support_type'
p6
S'CHAR(512)'
p7
sS'back'
p8
S'INTEGER'
p9
sS'taxon'
p10
S'INTEGER REFERENCES taxon(id) ON DELETE NO ACTION'
p11
sS'ingroup'
p12
S'CHAR(1)'
p13
sS'otu'
p14
S'INTEGER REFERENCES otu(id) ON DELETE NO ACTION'
p15
sS'mtime'
p16
S'TIMESTAMP'
p17
sS'age_min'
p18
S'DOUBLE'
p19
sS'age_max'
p20
S'DOUBLE'
p21
sS'label'
p22
S'CHAR(128)'
p23
sS'id'
p24
S'INTEGER PRIMARY KEY AUTOINCREMENT'
p25
sS'posterior_support'
p26
S'DOUBLE'
p27
sS'age'
p28
S'DOUBLE'
p29
sS'tree'
p30
S'INTEGER REFERENCES stree(id) ON DELETE CASCADE'
p31
sS'length'
p32
S'DOUBLE'
p33
sS'next'
p34
S'INTEGER'
p35
sS'depth'
p36
S'INTEGER'
p37
sS'bootstrap_support'
p38
S'DOUBLE'
p39
sS'exemplar'
p40
S'CHAR(128)'
p41
sS'other_support'
p42
S'DOUBLE'
p43
sS'isleaf'
p44
S'CHAR(1)'
p45
s.