(dp1
S'comment'
p2
S'TEXT'
p3
sS'uploaded'
p4
S'TIMESTAMP NOT NULL'
p5
sS'treebase_id'
p6
S'INTEGER'
p7
sS'citation'
p8
S'TEXT NOT NULL'
p9
sS'genes'
p10
S'TEXT'
p11
sS'label'
p12
S'CHAR(512)'
p13
sS'focal_clade'
p14
S'INTEGER REFERENCES taxon(id) ON DELETE NO ACTION'
p15
sS'contributor'
p16
S'CHAR(128) NOT NULL'
p17
sS'id'
p18
S'INTEGER PRIMARY KEY AUTOINCREMENT'
p19
sS'year_published'
p20
S'INTEGER'
p21
s.