(dp1
S'study'
p2
S'INTEGER REFERENCES study(id) ON DELETE NO ACTION'
p3
sS'taxon'
p4
S'INTEGER REFERENCES taxon(id) ON DELETE CASCADE'
p5
sS'id'
p6
S'INTEGER PRIMARY KEY AUTOINCREMENT'
p7
sS'label'
p8
S'CHAR(512) NOT NULL'
p9
s.