(dp1
S'body'
p2
(dp3
S'type'
p4
S'text'
p5
sS'sortable'
p6
I7
sS'sql'
p7
S'LONGTEXT'
p8
ssS'modified_by'
p9
(dp10
g4
S'reference auth_user'
p11
sg6
I12
sg7
S'INT, INDEX modified_by__idx (modified_by), FOREIGN KEY (modified_by) REFERENCES auth_user(id) ON DELETE CASCADE'
p12
ssS'title'
p13
(dp14
g4
S'string'
p15
sg6
I4
sg7
S'VARCHAR(255)'
p16
ssS'id'
p17
(dp18
g4
g17
sg6
I1
sg7
S'INT AUTO_INCREMENT NOT NULL'
p19
ssS'current_record'
p20
(dp21
g4
S'reference plugin_wiki_page'
p22
sg6
I2
sg7
S'INT, INDEX current_record__idx (current_record), FOREIGN KEY (current_record) REFERENCES plugin_wiki_page(id) ON DELETE CASCADE'
p23
ssS'changelog'
p24
(dp25
g4
g15
sg6
I9
sg7
S'VARCHAR(255)'
p26
ssS'created_by'
p27
(dp28
g4
S'reference auth_user'
p29
sg6
I10
sg7
S'INT, INDEX created_by__idx (created_by), FOREIGN KEY (created_by) REFERENCES auth_user(id) ON DELETE CASCADE'
p30
ssS'slug'
p31
(dp32
g4
g15
sg6
I3
sg7
S'VARCHAR(255)'
p33
ssS'modified_on'
p34
(dp35
g4
S'datetime'
p36
sg6
I13
sg7
S'DATETIME'
p37
ssS'created_on'
p38
(dp39
g4
g36
sg6
I11
sg7
S'DATETIME'
p40
ssS'role'
p41
(dp42
g4
S'reference auth_group'
p43
sg6
I8
sg7
S'INT, INDEX role__idx (role), FOREIGN KEY (role) REFERENCES auth_group(id) ON DELETE CASCADE'
p44
ssS'active'
p45
(dp46
g4
S'boolean'
p47
sg6
I5
sg7
S'CHAR(1)'
p48
ssS'public'
p49
(dp50
g4
g47
sg6
I6
sg7
S'CHAR(1)'
p51
ss.