(dp1
S'name'
p2
(dp3
S'type'
p4
S'string'
p5
sS'sortable'
p6
I6
sS'sql'
p7
S'VARCHAR(255) NOT NULL UNIQUE'
p8
ssS'parent'
p9
(dp10
g4
S'integer'
p11
sg6
I2
sg7
S'INT'
p12
ssS'back'
p13
(dp14
g4
g11
sg6
I4
sg7
S'INT'
p15
ssS'rank'
p16
(dp17
g4
g5
sg6
I7
sg7
S'VARCHAR(255)'
p18
ssS'next'
p19
(dp20
g4
g11
sg6
I3
sg7
S'INT'
p21
ssS'depth'
p22
(dp23
g4
g11
sg6
I5
sg7
S'INT'
p24
ssS'id'
p25
(dp26
g4
g25
sg6
I1
sg7
S'INT AUTO_INCREMENT NOT NULL'
p27
ss.