(dp1
S'apg_taxon'
p2
(dp3
S'type'
p4
S'reference apg_taxon'
p5
sS'sortable'
p6
I7
sS'sql'
p7
S'INT, INDEX apg_taxon__idx (apg_taxon), FOREIGN KEY (apg_taxon) REFERENCES apg_taxon(id) ON DELETE NO ACTION'
p8
ssS'name'
p9
(dp10
g4
S'string'
p11
sg6
I2
sg7
S'VARCHAR(255) NOT NULL'
p12
ssS'ncbi_taxid'
p13
(dp14
g4
S'integer'
p15
sg6
I4
sg7
S'INT'
p16
ssS'rank'
p17
(dp18
g4
g11
sg6
I3
sg7
S'VARCHAR(255)'
p19
ssS'id'
p20
(dp21
g4
g20
sg6
I1
sg7
S'INT AUTO_INCREMENT NOT NULL'
p22
ssS'namebank_id'
p23
(dp24
g4
g15
sg6
I5
sg7
S'INT'
p25
ssS'tb_taxid'
p26
(dp27
g4
g15
sg6
I6
sg7
S'INT'
p28
ss.