(dp1
S'gtree_edit'
p2
(dp3
S'type'
p4
S'reference gtree_edit'
p5
sS'sortable'
p6
I3
sS'sql'
p7
S'INT, INDEX gtree_edit__idx (gtree_edit), FOREIGN KEY (gtree_edit) REFERENCES gtree_edit(id) ON DELETE CASCADE'
p8
ssS'id'
p9
(dp10
g4
g9
sg6
I1
sg7
S'INT AUTO_INCREMENT NOT NULL'
p11
ssS'pruned_gnode'
p12
(dp13
g4
S'reference gnode'
p14
sg6
I2
sg7
S'INT, INDEX pruned_gnode__idx (pruned_gnode), FOREIGN KEY (pruned_gnode) REFERENCES gnode(id) ON DELETE CASCADE'
p15
ss.