(dp1
S'genus'
p2
(dp3
S'type'
p4
S'reference taxon'
p5
sS'sortable'
p6
I5
sS'sql'
p7
S'INT, INDEX genus__idx (genus), FOREIGN KEY (genus) REFERENCES taxon(id) ON DELETE NO ACTION'
p8
ssS'study'
p9
(dp10
g4
S'reference study'
p11
sg6
I2
sg7
S'INT, INDEX study__idx (study), FOREIGN KEY (study) REFERENCES study(id) ON DELETE NO ACTION'
p12
ssS'taxon'
p13
(dp14
g4
S'reference taxon'
p15
sg6
I4
sg7
S'INT, INDEX taxon__idx (taxon), FOREIGN KEY (taxon) REFERENCES taxon(id) ON DELETE NO ACTION'
p16
ssS'id'
p17
(dp18
g4
g17
sg6
I1
sg7
S'INT AUTO_INCREMENT NOT NULL'
p19
ssS'label'
p20
(dp21
g4
S'string'
p22
sg6
I3
sg7
S'VARCHAR(255) NOT NULL'
p23
ss.