(dp1
S'back'
p2
(dp3
S'type'
p4
S'integer'
p5
sS'sortable'
p6
I8
sS'sql'
p7
S'INT'
p8
ssS'pruned'
p9
(dp10
g4
S'boolean'
p11
sg6
I5
sg7
S'CHAR(1) NOT NULL'
p12
ssS'age_max'
p13
(dp14
g4
S'double'
p15
sg6
I12
sg7
S'DOUBLE'
p16
ssS'parent'
p17
(dp18
g4
S'reference gnode'
p19
sg6
I6
sg7
S'INT, INDEX parent__idx (parent), FOREIGN KEY (parent) REFERENCES gnode(id) ON DELETE NO ACTION'
p20
ssS'age'
p21
(dp22
g4
g15
sg6
I10
sg7
S'DOUBLE'
p23
ssS'mtime'
p24
(dp25
g4
S'datetime'
p26
sg6
I16
sg7
S'DATETIME'
p27
ssS'tree'
p28
(dp29
g4
S'reference gtree'
p30
sg6
I13
sg7
S'INT, INDEX tree__idx (tree), FOREIGN KEY (tree) REFERENCES gtree(id) ON DELETE NO ACTION'
p31
ssS'ntips'
p32
(dp33
g4
g5
sg6
I4
sg7
S'INT'
p34
ssS'snode'
p35
(dp36
g4
S'reference snode'
p37
sg6
I14
sg7
S'INT, INDEX snode__idx (snode), FOREIGN KEY (snode) REFERENCES snode(id) ON DELETE NO ACTION'
p38
ssS'label'
p39
(dp40
g4
S'string'
p41
sg6
I2
sg7
S'VARCHAR(128)'
p42
ssS'istip'
p43
(dp44
g4
g11
sg6
I3
sg7
S'CHAR(1)'
p45
ssS'stree'
p46
(dp47
g4
S'reference stree'
p48
sg6
I15
sg7
S'INT, INDEX stree__idx (stree), FOREIGN KEY (stree) REFERENCES stree(id) ON DELETE NO ACTION'
p49
ssS'age_min'
p50
(dp51
g4
g15
sg6
I11
sg7
S'DOUBLE'
p52
ssS'length'
p53
(dp54
g4
g15
sg6
I9
sg7
S'DOUBLE'
p55
ssS'next'
p56
(dp57
g4
g5
sg6
I7
sg7
S'INT'
p58
ssS'id'
p59
(dp60
g4
g59
sg6
I1
sg7
S'INT AUTO_INCREMENT NOT NULL'
p61
ss.