(dp1
S'ac'
p2
(dp3
S'type'
p4
S'string'
p5
sS'sortable'
p6
I5
sS'sql'
p7
S'VARCHAR(255)'
p8
ssS'otu'
p9
(dp10
g4
S'reference otu'
p11
sg6
I2
sg7
S'INT, INDEX otu__idx (otu), FOREIGN KEY (otu) REFERENCES otu(id) ON DELETE NO ACTION'
p12
ssS'gene'
p13
(dp14
g4
S'reference gene'
p15
sg6
I3
sg7
S'INT, INDEX gene__idx (gene), FOREIGN KEY (gene) REFERENCES gene(id) ON DELETE NO ACTION'
p16
ssS'data'
p17
(dp18
g4
S'text'
p19
sg6
I6
sg7
S'LONGTEXT'
p20
ssS'id'
p21
(dp22
g4
g21
sg6
I1
sg7
S'INT AUTO_INCREMENT NOT NULL'
p23
ssS'gi'
p24
(dp25
g4
S'integer'
p26
sg6
I4
sg7
S'INT'
p27
ss.