(dp1
S'genome'
p2
(dp3
S'type'
p4
S'string'
p5
sS'sortable'
p6
I3
sS'sql'
p7
S'VARCHAR(255)'
p8
ssS'id'
p9
(dp10
g4
g9
sg6
I1
sg7
S'INT AUTO_INCREMENT NOT NULL'
p11
ssS'name'
p12
(dp13
g4
g5
sg6
I2
sg7
S'VARCHAR(255) NOT NULL UNIQUE'
p14
ss.