(dp1
S'output'
p2
S"<type 'exceptions.ImportError'> No module named Phylografter.modules.clienttools"
p3
sS'layer'
p4
S'C:\\Documents and Settings\\Guest\\Desktop\\web2py_win\\web2py\\applications\\Phylografter\\models\\db.py'
p5
sS'code'
p6
S'import datetime, socket, os, sys\nfrom ConfigParser import SafeConfigParser\n\ndefaults = dict(host="localhost", user="guest", password="guest", dbname="phylografter")\n\nconf = SafeConfigParser(defaults)\n\nuser = password = dbname = host = \'\'\n\n#db = DAL("sqlite://phylografter.db")\n#db = DAL("mysql://%s:%s@%s/%s" % (user, password, host, dbname), migrate=False ) \n\nif os.path.isfile("applications/%s/private/localconfig" % request.application):\n    conf.read("applications/%s/private/localconfig" % request.application)\n    host = conf.get("db", "host")\n    user = conf.get("db", "user")\n    password = conf.get("db", "password")\n    dbname = conf.get("db", "dbname")\n\nelse:\n    conf.read("applications/%s/private/config" % request.application)\n    host = conf.get("db", "host")\n    user = conf.get("db", "user")\n    password = conf.get("db", "password")\n    dbname = conf.get("db", "dbname")\n\ndb = DAL("mysql://%s:%s@%s/%s" % (user, password, host, dbname), migrate=False ) \n#db = DAL("mysql://%s:%s@%s/%s" % (user, password, host, dbname), migrate=False, fake_migrate_all=True, migrate_enabled=False ) \n\n\nfrom gluon.tools import *\n## mail = Mail()                    # mailer\nauth = Auth(globals(),db)           # authentication/authorization\ncrud = Crud(globals(),db)           # for CRUD helpers using auth\nservice = Service(globals())        # for json, xml, jsonrpc, xmlrpc, amfrpc\nplugins = PluginManager()\n\n## mail.settings.server = \'logging\' or \'smtp.gmail.com:587\'  # your SMTP server\n## mail.settings.sender = \'you@gmail.com\'         # your email\n## mail.settings.login = \'username:password\'      # your credentials or None\n## auth.settings.hmac_key = \'<your secret key>\'   # before define_tables()\nauth.define_tables( migrate=False )                           # creates all needed tables\n## auth.settings.mailer = mail                 # for user email verification\nauth.settings.registration_requires_verification = False\nauth.settings.registration_requires_approval = False\nauth.messages.verify_email = \'Click on the link http://\'+request.env.http_host+URL(r=request,c=\'default\',f=\'user\',args=[\'verify_email\'])+\'/%(key)s to verify your email\'\nauth.settings.reset_password_requires_verification = True\nauth.messages.reset_password = \'Click on the link http://\'+request.env.http_host+URL(r=request,c=\'default\',f=\'user\',args=[\'reset_password\'])+\'/%(key)s to reset your password\'\n\n#########################################################################\n## If you need to use OpenID, Facebook, MySpace, Twitter, Linkedin, etc.\n## register with janrain.com, uncomment and customize following\nhost = socket.gethostname()\nif host == "rickroll":\n    host = "www.reelab.net"\nelse:\n    host = "localhost:8000"\nfrom gluon.contrib.login_methods.rpx_account import RPXAccount\nauth.settings.actions_disabled=[\'register\',\'change_password\',\'request_reset_password\']\nauth.settings.login_form = RPXAccount(\n    request, api_key=\'9435bcb6253fa24c4680cbbd0d4e75a0accde8b3\',\n    domain=\'phylografter\',\n    url = "http://%s/%s/default/user/login" % (host, request.application)\n    )\n\nif request.controller==\'default\' and request.function==\'user\' and request.args(0)==\'login\':\n    auth.settings.login_next = session._next or URL(\'index\')\nelse:\n    session._next = request.env.path_info\n\n## other login methods are in gluon/contrib/login_methods\n#########################################################################\n\ncrud.settings.auth = None                      # =auth to enforce authorization on crud\n\n# from http://www.web2pyslices.com/main/slices/take_slice/8\nclienttools = local_import(\'clienttools\')\npage = clienttools.PageManager(globals())\nevent = clienttools.EventManager(page)\njs = clienttools.ScriptManager(page) # javascript helpers\njq = clienttools.JQuery # don\'t instantiate, just to shorten\n\ndefine_tables(db)\n\ndef delete_stree(i, otu=False):\n    rec = db.stree(i)\n    assert rec\n    snodes = db(db.snode.tree==i)\n    if otu:\n        q = ((db.snode.tree==db.stree.id)&\n             (db.snode.otu==db.otu.id)&\n             (db.stree.id==i))\n        otus = [ x.id for x in db(q).select(db.otu.id) ]\n        db(db.otu.id.belongs(otus)).delete()\n    snodes.delete()\n    rec.delete_record()\n\ndef upload_fasta(study, fname):\n    from Bio import SeqIO\n    study = db.study(int(study))\n    assert study\n    recs = SeqIO.parse(fname, "fasta")\n    \ndef insert_ncbi_node(taxid, email):\n    from ivy import genbank\n    genbank.email = email\n    d = genbank.fetchtax(taxid)\n    assert d\n    parent_taxid = int(d["LineageEx"][-1]["TaxId"])\n    t = db.ncbi_node\n    p = db(t.taxid==parent_taxid).select().first()\n    assert p\n    # make room for new node\n    b = p.back\n    db(t.back>=p.back).update(next=t.next+2, back=t.back+2)\n    name = d[\'ScientificName\']; rank = d[\'Rank\']\n    i = t.insert(taxid=taxid, name=name, rank=rank,\n                 next=b, back=b+1, parent=p.id)\n    print "Inserted %s into ncbi_node: %s" % (name, i)\n    #insert taxon record\n    q = (db.taxon.name==name)&(db.taxon.ncbi_taxid==taxid)\n    if not db(q).select().first():\n        i = db.taxon.insert(name=name, rank=rank, ncbi_taxid=taxid)\n        print "Inserted %s into taxon: %s" % (name, i)\n    if d[\'OtherNames\'] and d[\'OtherNames\'][\'GenbankSynonym\']:\n        for syn in d[\'OtherNames\'][\'GenbankSynonym\']:\n            q = (db.taxon.name==syn)&(db.taxon.ncbi_taxid==taxid)\n            if not db(q).select().first():\n                i = db.taxon.insert(name=syn, rank=rank, ncbi_taxid=taxid)\n                print "Inserted %s into taxon: %s" % (syn, i)\n    \n        \n'
p7
sS'snapshot'
p8
(dp9
S'exception'
p10
(dp11
S'__hash__'
p12
S"<method-wrapper '__hash__' of exceptions.ImportError object at 0x03988F58>"
p13
sS'__setattr__'
p14
S"<method-wrapper '__setattr__' of exceptions.ImportError object at 0x03988F58>"
p15
sS'__reduce_ex__'
p16
S'<built-in method __reduce_ex__ of exceptions.ImportError object at 0x03988F58>'
p17
sS'__getslice__'
p18
S"<method-wrapper '__getslice__' of exceptions.ImportError object at 0x03988F58>"
p19
sS'__getitem__'
p20
S"<method-wrapper '__getitem__' of exceptions.ImportError object at 0x03988F58>"
p21
sS'__setstate__'
p22
S'<built-in method __setstate__ of exceptions.ImportError object at 0x03988F58>'
p23
sS'__reduce__'
p24
S'<built-in method __reduce__ of exceptions.ImportError object at 0x03988F58>'
p25
sS'__str__'
p26
S"<method-wrapper '__str__' of exceptions.ImportError object at 0x03988F58>"
p27
sS'args'
p28
S"('No module named Phylografter.modules.clienttools',)"
p29
sS'__getattribute__'
p30
S"<method-wrapper '__getattribute__' of exceptions.ImportError object at 0x03988F58>"
p31
sS'__class__'
p32
S"<type 'exceptions.ImportError'>"
p33
sS'__delattr__'
p34
S"<method-wrapper '__delattr__' of exceptions.ImportError object at 0x03988F58>"
p35
sS'__repr__'
p36
S"<method-wrapper '__repr__' of exceptions.ImportError object at 0x03988F58>"
p37
sS'__dict__'
p38
S'{}'
p39
sS'__doc__'
p40
S'"Import can\'t find module, or can\'t find name in module."'
p41
sS'__init__'
p42
S"<method-wrapper '__init__' of exceptions.ImportError object at 0x03988F58>"
p43
sS'__new__'
p44
S'<built-in method __new__ of type object at 0x1E1CD198>'
p45
ssS'evalue'
p46
S'No module named Phylografter.modules.clienttools'
p47
sS'request'
p48
ccopy_reg
_reconstructor
p49
(cgluon.html
BEAUTIFY
p50
c__builtin__
object
p51
NtRp52
(dp53
S'attributes'
p54
(dp55
sS'components'
p56
(lp57
g49
(cgluon.html
TABLE
p58
g51
NtRp59
(dp60
g54
(dp61
S'level'
p62
I5
ssS'parent'
p63
Nsg56
(lp64
g49
(cgluon.html
TR
p65
g51
NtRp66
(dp67
g54
(dp68
sg63
g59
sg56
(lp69
g49
(cgluon.html
TD
p70
g51
NtRp71
(dp72
g54
(dp73
S'_style'
p74
S'font-weight:bold;vertical-align:top'
p75
ssg63
g66
sg56
(lp76
S'ajax'
p77
asbag49
(g70
g51
NtRp78
(dp79
g54
(dp80
S'_valign'
p81
S'top'
p82
ssg63
g66
sg56
(lp83
S':'
asbag49
(g70
g51
NtRp84
(dp85
g54
(dp86
sg63
g66
sg56
(lp87
g49
(g50
g51
NtRp88
(dp89
g54
(dp90
g62
I5
ssg63
g84
sg56
(lp91
S'False'
p92
asbasbasbag49
(g65
g51
NtRp93
(dp94
g54
(dp95
sg63
g59
sg56
(lp96
g49
(g70
g51
NtRp97
(dp98
g54
(dp99
g74
g75
ssg63
g93
sg56
(lp100
S'application'
p101
asbag49
(g70
g51
NtRp102
(dp103
g54
(dp104
g81
g82
ssg63
g93
sg56
(lp105
S':'
asbag49
(g70
g51
NtRp106
(dp107
g54
(dp108
sg63
g93
sg56
(lp109
g49
(g50
g51
NtRp110
(dp111
g54
(dp112
g62
I5
ssg63
g106
sg56
(lp113
S'Phylografter'
p114
asbasbasbag49
(g65
g51
NtRp115
(dp116
g54
(dp117
sg63
g59
sg56
(lp118
g49
(g70
g51
NtRp119
(dp120
g54
(dp121
g74
g75
ssg63
g115
sg56
(lp122
g28
asbag49
(g70
g51
NtRp123
(dp124
g54
(dp125
g81
g82
ssg63
g115
sg56
(lp126
S':'
asbag49
(g70
g51
NtRp127
(dp128
g54
(dp129
sg63
g115
sg56
(lp130
g49
(g50
g51
NtRp131
(dp132
g54
(dp133
g62
I5
ssg63
g127
sg56
(lp134
g49
(g58
g51
NtRp135
(dp136
g54
(dp137
g62
I4
ssg63
Nsg56
(lp138
sbasbasbasbag49
(g65
g51
NtRp139
(dp140
g54
(dp141
sg63
g59
sg56
(lp142
g49
(g70
g51
NtRp143
(dp144
g54
(dp145
g74
g75
ssg63
g139
sg56
(lp146
S'body'
p147
asbag49
(g70
g51
NtRp148
(dp149
g54
(dp150
g81
g82
ssg63
g139
sg56
(lp151
S':'
asbag49
(g70
g51
NtRp152
(dp153
g54
(dp154
sg63
g139
sg56
(lp155
g49
(g50
g51
NtRp156
(dp157
g54
(dp158
g62
I5
ssg63
g152
sg56
(lp159
S'<cStringIO.StringO object at 0x01A1E8E0>'
p160
asbasbasbag49
(g65
g51
NtRp161
(dp162
g54
(dp163
sg63
g59
sg56
(lp164
g49
(g70
g51
NtRp165
(dp166
g54
(dp167
g74
g75
ssg63
g161
sg56
(lp168
S'client'
p169
asbag49
(g70
g51
NtRp170
(dp171
g54
(dp172
g81
g82
ssg63
g161
sg56
(lp173
S':'
asbag49
(g70
g51
NtRp174
(dp175
g54
(dp176
sg63
g161
sg56
(lp177
g49
(g50
g51
NtRp178
(dp179
g54
(dp180
g62
I5
ssg63
g174
sg56
(lp181
S'127.0.0.1'
p182
asbasbasbag49
(g65
g51
NtRp183
(dp184
g54
(dp185
sg63
g59
sg56
(lp186
g49
(g70
g51
NtRp187
(dp188
g54
(dp189
g74
g75
ssg63
g183
sg56
(lp190
S'controller'
p191
asbag49
(g70
g51
NtRp192
(dp193
g54
(dp194
g81
g82
ssg63
g183
sg56
(lp195
S':'
asbag49
(g70
g51
NtRp196
(dp197
g54
(dp198
sg63
g183
sg56
(lp199
g49
(g50
g51
NtRp200
(dp201
g54
(dp202
g62
I5
ssg63
g196
sg56
(lp203
S'default'
p204
asbasbasbag49
(g65
g51
NtRp205
(dp206
g54
(dp207
sg63
g59
sg56
(lp208
g49
(g70
g51
NtRp209
(dp210
g54
(dp211
g74
g75
ssg63
g205
sg56
(lp212
S'cookies'
p213
asbag49
(g70
g51
NtRp214
(dp215
g54
(dp216
g81
g82
ssg63
g205
sg56
(lp217
S':'
asbag49
(g70
g51
NtRp218
(dp219
g54
(dp220
sg63
g205
sg56
(lp221
g49
(g50
g51
NtRp222
(dp223
g54
(dp224
g62
I5
ssg63
g218
sg56
(lp225
g49
(g58
g51
NtRp226
(dp227
g54
(dp228
g62
I4
ssg63
Nsg56
(lp229
g49
(g65
g51
NtRp230
(dp231
g54
(dp232
sg63
g226
sg56
(lp233
g49
(g70
g51
NtRp234
(dp235
g54
(dp236
g74
g75
ssg63
g230
sg56
(lp237
S'session_id_admin'
p238
asbag49
(g70
g51
NtRp239
(dp240
g54
(dp241
g81
g82
ssg63
g230
sg56
(lp242
S':'
asbag49
(g70
g51
NtRp243
(dp244
g54
(dp245
sg63
g230
sg56
(lp246
g49
(g50
g51
NtRp247
(dp248
g54
(dp249
g62
I4
ssg63
g243
sg56
(lp250
g49
(g58
g51
NtRp251
(dp252
g54
(dp253
g62
I3
ssg63
Nsg56
(lp254
g49
(g65
g51
NtRp255
(dp256
g54
(dp257
sg63
g251
sg56
(lp258
g49
(g70
g51
NtRp259
(dp260
g54
(dp261
g74
g75
ssg63
g255
sg56
(lp262
S'comment'
p263
asbag49
(g70
g51
NtRp264
(dp265
g54
(dp266
g81
g82
ssg63
g255
sg56
(lp267
S':'
asbag49
(g70
g51
NtRp268
(dp269
g54
(dp270
sg63
g255
sg56
(lp271
g49
(g50
g51
NtRp272
(dp273
g54
(dp274
g62
I3
ssg63
g268
sg56
(lp275
S''
asbasbasbag49
(g65
g51
NtRp276
(dp277
g54
(dp278
sg63
g251
sg56
(lp279
g49
(g70
g51
NtRp280
(dp281
g54
(dp282
g74
g75
ssg63
g276
sg56
(lp283
S'domain'
p284
asbag49
(g70
g51
NtRp285
(dp286
g54
(dp287
g81
g82
ssg63
g276
sg56
(lp288
S':'
asbag49
(g70
g51
NtRp289
(dp290
g54
(dp291
sg63
g276
sg56
(lp292
g49
(g50
g51
NtRp293
(dp294
g54
(dp295
g62
I3
ssg63
g289
sg56
(lp296
S''
asbasbasbag49
(g65
g51
NtRp297
(dp298
g54
(dp299
sg63
g251
sg56
(lp300
g49
(g70
g51
NtRp301
(dp302
g54
(dp303
g74
g75
ssg63
g297
sg56
(lp304
S'expires'
p305
asbag49
(g70
g51
NtRp306
(dp307
g54
(dp308
g81
g82
ssg63
g297
sg56
(lp309
S':'
asbag49
(g70
g51
NtRp310
(dp311
g54
(dp312
sg63
g297
sg56
(lp313
g49
(g50
g51
NtRp314
(dp315
g54
(dp316
g62
I3
ssg63
g310
sg56
(lp317
S''
asbasbasbag49
(g65
g51
NtRp318
(dp319
g54
(dp320
sg63
g251
sg56
(lp321
g49
(g70
g51
NtRp322
(dp323
g54
(dp324
g74
g75
ssg63
g318
sg56
(lp325
S'max-age'
p326
asbag49
(g70
g51
NtRp327
(dp328
g54
(dp329
g81
g82
ssg63
g318
sg56
(lp330
S':'
asbag49
(g70
g51
NtRp331
(dp332
g54
(dp333
sg63
g318
sg56
(lp334
g49
(g50
g51
NtRp335
(dp336
g54
(dp337
g62
I3
ssg63
g331
sg56
(lp338
S''
asbasbasbag49
(g65
g51
NtRp339
(dp340
g54
(dp341
sg63
g251
sg56
(lp342
g49
(g70
g51
NtRp343
(dp344
g54
(dp345
g74
g75
ssg63
g339
sg56
(lp346
S'path'
p347
asbag49
(g70
g51
NtRp348
(dp349
g54
(dp350
g81
g82
ssg63
g339
sg56
(lp351
S':'
asbag49
(g70
g51
NtRp352
(dp353
g54
(dp354
sg63
g339
sg56
(lp355
g49
(g50
g51
NtRp356
(dp357
g54
(dp358
g62
I3
ssg63
g352
sg56
(lp359
S''
asbasbasbag49
(g65
g51
NtRp360
(dp361
g54
(dp362
sg63
g251
sg56
(lp363
g49
(g70
g51
NtRp364
(dp365
g54
(dp366
g74
g75
ssg63
g360
sg56
(lp367
S'secure'
p368
asbag49
(g70
g51
NtRp369
(dp370
g54
(dp371
g81
g82
ssg63
g360
sg56
(lp372
S':'
asbag49
(g70
g51
NtRp373
(dp374
g54
(dp375
sg63
g360
sg56
(lp376
g49
(g50
g51
NtRp377
(dp378
g54
(dp379
g62
I3
ssg63
g373
sg56
(lp380
S''
asbasbasbag49
(g65
g51
NtRp381
(dp382
g54
(dp383
sg63
g251
sg56
(lp384
g49
(g70
g51
NtRp385
(dp386
g54
(dp387
g74
g75
ssg63
g381
sg56
(lp388
S'version'
p389
asbag49
(g70
g51
NtRp390
(dp391
g54
(dp392
g81
g82
ssg63
g381
sg56
(lp393
S':'
asbag49
(g70
g51
NtRp394
(dp395
g54
(dp396
sg63
g381
sg56
(lp397
g49
(g50
g51
NtRp398
(dp399
g54
(dp400
g62
I3
ssg63
g394
sg56
(lp401
S''
asbasbasbasbasbasbasbag49
(g65
g51
NtRp402
(dp403
g54
(dp404
sg63
g226
sg56
(lp405
g49
(g70
g51
NtRp406
(dp407
g54
(dp408
g74
g75
ssg63
g402
sg56
(lp409
S'session_id_welcome'
p410
asbag49
(g70
g51
NtRp411
(dp412
g54
(dp413
g81
g82
ssg63
g402
sg56
(lp414
S':'
asbag49
(g70
g51
NtRp415
(dp416
g54
(dp417
sg63
g402
sg56
(lp418
g49
(g50
g51
NtRp419
(dp420
g54
(dp421
g62
I4
ssg63
g415
sg56
(lp422
g49
(g58
g51
NtRp423
(dp424
g54
(dp425
g62
I3
ssg63
Nsg56
(lp426
g49
(g65
g51
NtRp427
(dp428
g54
(dp429
sg63
g423
sg56
(lp430
g49
(g70
g51
NtRp431
(dp432
g54
(dp433
g74
g75
ssg63
g427
sg56
(lp434
g263
asbag49
(g70
g51
NtRp435
(dp436
g54
(dp437
g81
g82
ssg63
g427
sg56
(lp438
S':'
asbag49
(g70
g51
NtRp439
(dp440
g54
(dp441
sg63
g427
sg56
(lp442
g49
(g50
g51
NtRp443
(dp444
g54
(dp445
g62
I3
ssg63
g439
sg56
(lp446
S''
asbasbasbag49
(g65
g51
NtRp447
(dp448
g54
(dp449
sg63
g423
sg56
(lp450
g49
(g70
g51
NtRp451
(dp452
g54
(dp453
g74
g75
ssg63
g447
sg56
(lp454
g284
asbag49
(g70
g51
NtRp455
(dp456
g54
(dp457
g81
g82
ssg63
g447
sg56
(lp458
S':'
asbag49
(g70
g51
NtRp459
(dp460
g54
(dp461
sg63
g447
sg56
(lp462
g49
(g50
g51
NtRp463
(dp464
g54
(dp465
g62
I3
ssg63
g459
sg56
(lp466
S''
asbasbasbag49
(g65
g51
NtRp467
(dp468
g54
(dp469
sg63
g423
sg56
(lp470
g49
(g70
g51
NtRp471
(dp472
g54
(dp473
g74
g75
ssg63
g467
sg56
(lp474
g305
asbag49
(g70
g51
NtRp475
(dp476
g54
(dp477
g81
g82
ssg63
g467
sg56
(lp478
S':'
asbag49
(g70
g51
NtRp479
(dp480
g54
(dp481
sg63
g467
sg56
(lp482
g49
(g50
g51
NtRp483
(dp484
g54
(dp485
g62
I3
ssg63
g479
sg56
(lp486
S''
asbasbasbag49
(g65
g51
NtRp487
(dp488
g54
(dp489
sg63
g423
sg56
(lp490
g49
(g70
g51
NtRp491
(dp492
g54
(dp493
g74
g75
ssg63
g487
sg56
(lp494
g326
asbag49
(g70
g51
NtRp495
(dp496
g54
(dp497
g81
g82
ssg63
g487
sg56
(lp498
S':'
asbag49
(g70
g51
NtRp499
(dp500
g54
(dp501
sg63
g487
sg56
(lp502
g49
(g50
g51
NtRp503
(dp504
g54
(dp505
g62
I3
ssg63
g499
sg56
(lp506
S''
asbasbasbag49
(g65
g51
NtRp507
(dp508
g54
(dp509
sg63
g423
sg56
(lp510
g49
(g70
g51
NtRp511
(dp512
g54
(dp513
g74
g75
ssg63
g507
sg56
(lp514
g347
asbag49
(g70
g51
NtRp515
(dp516
g54
(dp517
g81
g82
ssg63
g507
sg56
(lp518
S':'
asbag49
(g70
g51
NtRp519
(dp520
g54
(dp521
sg63
g507
sg56
(lp522
g49
(g50
g51
NtRp523
(dp524
g54
(dp525
g62
I3
ssg63
g519
sg56
(lp526
S''
asbasbasbag49
(g65
g51
NtRp527
(dp528
g54
(dp529
sg63
g423
sg56
(lp530
g49
(g70
g51
NtRp531
(dp532
g54
(dp533
g74
g75
ssg63
g527
sg56
(lp534
g368
asbag49
(g70
g51
NtRp535
(dp536
g54
(dp537
g81
g82
ssg63
g527
sg56
(lp538
S':'
asbag49
(g70
g51
NtRp539
(dp540
g54
(dp541
sg63
g527
sg56
(lp542
g49
(g50
g51
NtRp543
(dp544
g54
(dp545
g62
I3
ssg63
g539
sg56
(lp546
S''
asbasbasbag49
(g65
g51
NtRp547
(dp548
g54
(dp549
sg63
g423
sg56
(lp550
g49
(g70
g51
NtRp551
(dp552
g54
(dp553
g74
g75
ssg63
g547
sg56
(lp554
g389
asbag49
(g70
g51
NtRp555
(dp556
g54
(dp557
g81
g82
ssg63
g547
sg56
(lp558
S':'
asbag49
(g70
g51
NtRp559
(dp560
g54
(dp561
sg63
g547
sg56
(lp562
g49
(g50
g51
NtRp563
(dp564
g54
(dp565
g62
I3
ssg63
g559
sg56
(lp566
S''
asbasbasbasbasbasbasbasbasbasbasbag49
(g65
g51
NtRp567
(dp568
g54
(dp569
sg63
g59
sg56
(lp570
g49
(g70
g51
NtRp571
(dp572
g54
(dp573
g74
g75
ssg63
g567
sg56
(lp574
S'env'
p575
asbag49
(g70
g51
NtRp576
(dp577
g54
(dp578
g81
g82
ssg63
g567
sg56
(lp579
S':'
asbag49
(g70
g51
NtRp580
(dp581
g54
(dp582
sg63
g567
sg56
(lp583
g49
(g50
g51
NtRp584
(dp585
g54
(dp586
g62
I5
ssg63
g580
sg56
(lp587
g49
(g58
g51
NtRp588
(dp589
g54
(dp590
g62
I4
ssg63
Nsg56
(lp591
g49
(g65
g51
NtRp592
(dp593
g54
(dp594
sg63
g588
sg56
(lp595
g49
(g70
g51
NtRp596
(dp597
g54
(dp598
g74
g75
ssg63
g592
sg56
(lp599
S'app_folders'
p600
asbag49
(g70
g51
NtRp601
(dp602
g54
(dp603
g81
g82
ssg63
g592
sg56
(lp604
S':'
asbag49
(g70
g51
NtRp605
(dp606
g54
(dp607
sg63
g592
sg56
(lp608
g49
(g50
g51
NtRp609
(dp610
g54
(dp611
g62
I4
ssg63
g605
sg56
(lp612
S"set(['C:\\\\Documents and Settings\\\\Guest\\\\Desktop\\\\web2py_win\\\\web2py\\\\applications\\\\Phylografter\\\\', 'C:\\\\Documents and Settings\\\\Guest\\\\Desktop\\\\web2py_win\\\\web2py\\\\applications\\\\welcome\\\\', 'C:\\\\Documents and Settings\\\\Guest\\\\Desktop\\\\web2py_win\\\\web2py\\\\applications\\\\admin\\\\'])"
p613
asbasbasbag49
(g65
g51
NtRp614
(dp615
g54
(dp616
sg63
g588
sg56
(lp617
g49
(g70
g51
NtRp618
(dp619
g54
(dp620
g74
g75
ssg63
g614
sg56
(lp621
S'applications_parent'
p622
asbag49
(g70
g51
NtRp623
(dp624
g54
(dp625
g81
g82
ssg63
g614
sg56
(lp626
S':'
asbag49
(g70
g51
NtRp627
(dp628
g54
(dp629
sg63
g614
sg56
(lp630
g49
(g50
g51
NtRp631
(dp632
g54
(dp633
g62
I4
ssg63
g627
sg56
(lp634
S'C:\\Documents and Settings\\Guest\\Desktop\\web2py_win\\web2py'
p635
asbasbasbag49
(g65
g51
NtRp636
(dp637
g54
(dp638
sg63
g588
sg56
(lp639
g49
(g70
g51
NtRp640
(dp641
g54
(dp642
g74
g75
ssg63
g636
sg56
(lp643
S'cmd_args'
p644
asbag49
(g70
g51
NtRp645
(dp646
g54
(dp647
g81
g82
ssg63
g636
sg56
(lp648
S':'
asbag49
(g70
g51
NtRp649
(dp650
g54
(dp651
sg63
g636
sg56
(lp652
g49
(g50
g51
NtRp653
(dp654
g54
(dp655
g62
I4
ssg63
g649
sg56
(lp656
g49
(g58
g51
NtRp657
(dp658
g54
(dp659
g62
I3
ssg63
Nsg56
(lp660
sbasbasbasbag49
(g65
g51
NtRp661
(dp662
g54
(dp663
sg63
g588
sg56
(lp664
g49
(g70
g51
NtRp665
(dp666
g54
(dp667
g74
g75
ssg63
g661
sg56
(lp668
S'cmd_options'
p669
asbag49
(g70
g51
NtRp670
(dp671
g54
(dp672
g81
g82
ssg63
g661
sg56
(lp673
S':'
asbag49
(g70
g51
NtRp674
(dp675
g54
(dp676
sg63
g661
sg56
(lp677
g49
(g50
g51
NtRp678
(dp679
g54
(dp680
g62
I4
ssg63
g674
sg56
(lp681
S"<Values at 0x1879878: {'verbose': False, 'ip': '127.0.0.1', 'shutdown_timeout': 5, 'taskbar': False, 'nocron': False, 'pid_filename': 'httpserver.pid', 'maxthreads': None, 'softcron': False, 'server_name': 'fm-biosync-int1', 'bpython': False, 'nogui': False, 'port': 8000, 'extcron': False, 'debuglevel': 30, 'test': None, 'folder': 'C:\\\\Documents and Settings\\\\Guest\\\\Desktop\\\\web2py_win\\\\web2py', 'config': '', 'import_models': False, 'winservice': '', 'shell': None, 'run': '', 'log_filename': 'httpserver.log', 'args': [''], 'socket_timeout': 5, 'ssl_ca_certificate': None, 'scheduler': None, 'profiler_filename': None, 'ssl_private_key': '', 'password': '<ask>', 'request_queue_size': 5, 'ssl_certificate': '', 'cronjob': False, 'numthreads': None, 'quiet': False, 'interfaces': None, 'minthreads': None, 'timeout': 10, 'plain': False, 'nobanner': False}>"
p682
asbasbasbag49
(g65
g51
NtRp683
(dp684
g54
(dp685
sg63
g588
sg56
(lp686
g49
(g70
g51
NtRp687
(dp688
g54
(dp689
g74
g75
ssg63
g683
sg56
(lp690
S'db_sessions'
p691
asbag49
(g70
g51
NtRp692
(dp693
g54
(dp694
g81
g82
ssg63
g683
sg56
(lp695
S':'
asbag49
(g70
g51
NtRp696
(dp697
g54
(dp698
sg63
g683
sg56
(lp699
g49
(g50
g51
NtRp700
(dp701
g54
(dp702
g62
I4
ssg63
g696
sg56
(lp703
S'set([])'
p704
asbasbasbag49
(g65
g51
NtRp705
(dp706
g54
(dp707
sg63
g588
sg56
(lp708
g49
(g70
g51
NtRp709
(dp710
g54
(dp711
g74
g75
ssg63
g705
sg56
(lp712
S'debugging'
p713
asbag49
(g70
g51
NtRp714
(dp715
g54
(dp716
g81
g82
ssg63
g705
sg56
(lp717
S':'
asbag49
(g70
g51
NtRp718
(dp719
g54
(dp720
sg63
g705
sg56
(lp721
g49
(g50
g51
NtRp722
(dp723
g54
(dp724
g62
I4
ssg63
g718
sg56
(lp725
g92
asbasbasbag49
(g65
g51
NtRp726
(dp727
g54
(dp728
sg63
g588
sg56
(lp729
g49
(g70
g51
NtRp730
(dp731
g54
(dp732
g74
g75
ssg63
g726
sg56
(lp733
S'gluon_parent'
p734
asbag49
(g70
g51
NtRp735
(dp736
g54
(dp737
g81
g82
ssg63
g726
sg56
(lp738
S':'
asbag49
(g70
g51
NtRp739
(dp740
g54
(dp741
sg63
g726
sg56
(lp742
g49
(g50
g51
NtRp743
(dp744
g54
(dp745
g62
I4
ssg63
g739
sg56
(lp746
S'C:\\Documents and Settings\\Guest\\Desktop\\web2py_win\\web2py'
p747
asbasbasbag49
(g65
g51
NtRp748
(dp749
g54
(dp750
sg63
g588
sg56
(lp751
g49
(g70
g51
NtRp752
(dp753
g54
(dp754
g74
g75
ssg63
g748
sg56
(lp755
S'http_accept'
p756
asbag49
(g70
g51
NtRp757
(dp758
g54
(dp759
g81
g82
ssg63
g748
sg56
(lp760
S':'
asbag49
(g70
g51
NtRp761
(dp762
g54
(dp763
sg63
g748
sg56
(lp764
g49
(g50
g51
NtRp765
(dp766
g54
(dp767
g62
I4
ssg63
g761
sg56
(lp768
S'text/html,application/xhtml+xml,application/xml;q=0.9,*/*;q=0.8'
p769
asbasbasbag49
(g65
g51
NtRp770
(dp771
g54
(dp772
sg63
g588
sg56
(lp773
g49
(g70
g51
NtRp774
(dp775
g54
(dp776
g74
g75
ssg63
g770
sg56
(lp777
S'http_accept_charset'
p778
asbag49
(g70
g51
NtRp779
(dp780
g54
(dp781
g81
g82
ssg63
g770
sg56
(lp782
S':'
asbag49
(g70
g51
NtRp783
(dp784
g54
(dp785
sg63
g770
sg56
(lp786
g49
(g50
g51
NtRp787
(dp788
g54
(dp789
g62
I4
ssg63
g783
sg56
(lp790
S'ISO-8859-1,utf-8;q=0.7,*;q=0.3'
p791
asbasbasbag49
(g65
g51
NtRp792
(dp793
g54
(dp794
sg63
g588
sg56
(lp795
g49
(g70
g51
NtRp796
(dp797
g54
(dp798
g74
g75
ssg63
g792
sg56
(lp799
S'http_accept_encoding'
p800
asbag49
(g70
g51
NtRp801
(dp802
g54
(dp803
g81
g82
ssg63
g792
sg56
(lp804
S':'
asbag49
(g70
g51
NtRp805
(dp806
g54
(dp807
sg63
g792
sg56
(lp808
g49
(g50
g51
NtRp809
(dp810
g54
(dp811
g62
I4
ssg63
g805
sg56
(lp812
S'gzip,deflate,sdch'
p813
asbasbasbag49
(g65
g51
NtRp814
(dp815
g54
(dp816
sg63
g588
sg56
(lp817
g49
(g70
g51
NtRp818
(dp819
g54
(dp820
g74
g75
ssg63
g814
sg56
(lp821
S'http_accept_language'
p822
asbag49
(g70
g51
NtRp823
(dp824
g54
(dp825
g81
g82
ssg63
g814
sg56
(lp826
S':'
asbag49
(g70
g51
NtRp827
(dp828
g54
(dp829
sg63
g814
sg56
(lp830
g49
(g50
g51
NtRp831
(dp832
g54
(dp833
g62
I4
ssg63
g827
sg56
(lp834
S'en-US,en;q=0.8'
p835
asbasbasbag49
(g65
g51
NtRp836
(dp837
g54
(dp838
sg63
g588
sg56
(lp839
g49
(g70
g51
NtRp840
(dp841
g54
(dp842
g74
g75
ssg63
g836
sg56
(lp843
S'http_connection'
p844
asbag49
(g70
g51
NtRp845
(dp846
g54
(dp847
g81
g82
ssg63
g836
sg56
(lp848
S':'
asbag49
(g70
g51
NtRp849
(dp850
g54
(dp851
sg63
g836
sg56
(lp852
g49
(g50
g51
NtRp853
(dp854
g54
(dp855
g62
I4
ssg63
g849
sg56
(lp856
S'keep-alive'
p857
asbasbasbag49
(g65
g51
NtRp858
(dp859
g54
(dp860
sg63
g588
sg56
(lp861
g49
(g70
g51
NtRp862
(dp863
g54
(dp864
g74
g75
ssg63
g858
sg56
(lp865
S'http_cookie'
p866
asbag49
(g70
g51
NtRp867
(dp868
g54
(dp869
g81
g82
ssg63
g858
sg56
(lp870
S':'
asbag49
(g70
g51
NtRp871
(dp872
g54
(dp873
sg63
g858
sg56
(lp874
g49
(g50
g51
NtRp875
(dp876
g54
(dp877
g62
I4
ssg63
g871
sg56
(lp878
S'session_id_admin=127.0.0.1-0dd99b4e-ba61-458e-b626-1192cd4238f3; session_id_welcome=127.0.0.1-3c16ef67-ec2f-4ec8-8260-17d13cf69a55'
p879
asbasbasbag49
(g65
g51
NtRp880
(dp881
g54
(dp882
sg63
g588
sg56
(lp883
g49
(g70
g51
NtRp884
(dp885
g54
(dp886
g74
g75
ssg63
g880
sg56
(lp887
S'http_host'
p888
asbag49
(g70
g51
NtRp889
(dp890
g54
(dp891
g81
g82
ssg63
g880
sg56
(lp892
S':'
asbag49
(g70
g51
NtRp893
(dp894
g54
(dp895
sg63
g880
sg56
(lp896
g49
(g50
g51
NtRp897
(dp898
g54
(dp899
g62
I4
ssg63
g893
sg56
(lp900
S'127.0.0.1:8000'
p901
asbasbasbag49
(g65
g51
NtRp902
(dp903
g54
(dp904
sg63
g588
sg56
(lp905
g49
(g70
g51
NtRp906
(dp907
g54
(dp908
g74
g75
ssg63
g902
sg56
(lp909
S'http_user_agent'
p910
asbag49
(g70
g51
NtRp911
(dp912
g54
(dp913
g81
g82
ssg63
g902
sg56
(lp914
S':'
asbag49
(g70
g51
NtRp915
(dp916
g54
(dp917
sg63
g902
sg56
(lp918
g49
(g50
g51
NtRp919
(dp920
g54
(dp921
g62
I4
ssg63
g915
sg56
(lp922
S'Mozilla/5.0 (Windows NT 5.1) AppleWebKit/536.5 (KHTML, like Gecko) Chrome/19.0.1084.56 Safari/536.5'
p923
asbasbasbag49
(g65
g51
NtRp924
(dp925
g54
(dp926
sg63
g588
sg56
(lp927
g49
(g70
g51
NtRp928
(dp929
g54
(dp930
g74
g75
ssg63
g924
sg56
(lp931
S'is_jython'
p932
asbag49
(g70
g51
NtRp933
(dp934
g54
(dp935
g81
g82
ssg63
g924
sg56
(lp936
S':'
asbag49
(g70
g51
NtRp937
(dp938
g54
(dp939
sg63
g924
sg56
(lp940
g49
(g50
g51
NtRp941
(dp942
g54
(dp943
g62
I4
ssg63
g937
sg56
(lp944
g92
asbasbasbag49
(g65
g51
NtRp945
(dp946
g54
(dp947
sg63
g588
sg56
(lp948
g49
(g70
g51
NtRp949
(dp950
g54
(dp951
g74
g75
ssg63
g945
sg56
(lp952
S'is_pypy'
p953
asbag49
(g70
g51
NtRp954
(dp955
g54
(dp956
g81
g82
ssg63
g945
sg56
(lp957
S':'
asbag49
(g70
g51
NtRp958
(dp959
g54
(dp960
sg63
g945
sg56
(lp961
g49
(g50
g51
NtRp962
(dp963
g54
(dp964
g62
I4
ssg63
g958
sg56
(lp965
g92
asbasbasbag49
(g65
g51
NtRp966
(dp967
g54
(dp968
sg63
g588
sg56
(lp969
g49
(g70
g51
NtRp970
(dp971
g54
(dp972
g74
g75
ssg63
g966
sg56
(lp973
S'path_info'
p974
asbag49
(g70
g51
NtRp975
(dp976
g54
(dp977
g81
g82
ssg63
g966
sg56
(lp978
S':'
asbag49
(g70
g51
NtRp979
(dp980
g54
(dp981
sg63
g966
sg56
(lp982
g49
(g50
g51
NtRp983
(dp984
g54
(dp985
g62
I4
ssg63
g979
sg56
(lp986
S'/Phylografter/default/index'
p987
asbasbasbag49
(g65
g51
NtRp988
(dp989
g54
(dp990
sg63
g588
sg56
(lp991
g49
(g70
g51
NtRp992
(dp993
g54
(dp994
g74
g75
ssg63
g988
sg56
(lp995
S'query_string'
p996
asbag49
(g70
g51
NtRp997
(dp998
g54
(dp999
g81
g82
ssg63
g988
sg56
(lp1000
S':'
asbag49
(g70
g51
NtRp1001
(dp1002
g54
(dp1003
sg63
g988
sg56
(lp1004
g49
(g50
g51
NtRp1005
(dp1006
g54
(dp1007
g62
I4
ssg63
g1001
sg56
(lp1008
S''
asbasbasbag49
(g65
g51
NtRp1009
(dp1010
g54
(dp1011
sg63
g588
sg56
(lp1012
g49
(g70
g51
NtRp1013
(dp1014
g54
(dp1015
g74
g75
ssg63
g1009
sg56
(lp1016
S'remote_addr'
p1017
asbag49
(g70
g51
NtRp1018
(dp1019
g54
(dp1020
g81
g82
ssg63
g1009
sg56
(lp1021
S':'
asbag49
(g70
g51
NtRp1022
(dp1023
g54
(dp1024
sg63
g1009
sg56
(lp1025
g49
(g50
g51
NtRp1026
(dp1027
g54
(dp1028
g62
I4
ssg63
g1022
sg56
(lp1029
g182
asbasbasbag49
(g65
g51
NtRp1030
(dp1031
g54
(dp1032
sg63
g588
sg56
(lp1033
g49
(g70
g51
NtRp1034
(dp1035
g54
(dp1036
g74
g75
ssg63
g1030
sg56
(lp1037
S'remote_port'
p1038
asbag49
(g70
g51
NtRp1039
(dp1040
g54
(dp1041
g81
g82
ssg63
g1030
sg56
(lp1042
S':'
asbag49
(g70
g51
NtRp1043
(dp1044
g54
(dp1045
sg63
g1030
sg56
(lp1046
g49
(g50
g51
NtRp1047
(dp1048
g54
(dp1049
g62
I4
ssg63
g1043
sg56
(lp1050
S'2094'
p1051
asbasbasbag49
(g65
g51
NtRp1052
(dp1053
g54
(dp1054
sg63
g588
sg56
(lp1055
g49
(g70
g51
NtRp1056
(dp1057
g54
(dp1058
g74
g75
ssg63
g1052
sg56
(lp1059
S'request_method'
p1060
asbag49
(g70
g51
NtRp1061
(dp1062
g54
(dp1063
g81
g82
ssg63
g1052
sg56
(lp1064
S':'
asbag49
(g70
g51
NtRp1065
(dp1066
g54
(dp1067
sg63
g1052
sg56
(lp1068
g49
(g50
g51
NtRp1069
(dp1070
g54
(dp1071
g62
I4
ssg63
g1065
sg56
(lp1072
S'GET'
p1073
asbasbasbag49
(g65
g51
NtRp1074
(dp1075
g54
(dp1076
sg63
g588
sg56
(lp1077
g49
(g70
g51
NtRp1078
(dp1079
g54
(dp1080
g74
g75
ssg63
g1074
sg56
(lp1081
S'script_name'
p1082
asbag49
(g70
g51
NtRp1083
(dp1084
g54
(dp1085
g81
g82
ssg63
g1074
sg56
(lp1086
S':'
asbag49
(g70
g51
NtRp1087
(dp1088
g54
(dp1089
sg63
g1074
sg56
(lp1090
g49
(g50
g51
NtRp1091
(dp1092
g54
(dp1093
g62
I4
ssg63
g1087
sg56
(lp1094
S''
asbasbasbag49
(g65
g51
NtRp1095
(dp1096
g54
(dp1097
sg63
g588
sg56
(lp1098
g49
(g70
g51
NtRp1099
(dp1100
g54
(dp1101
g74
g75
ssg63
g1095
sg56
(lp1102
S'server_name'
p1103
asbag49
(g70
g51
NtRp1104
(dp1105
g54
(dp1106
g81
g82
ssg63
g1095
sg56
(lp1107
S':'
asbag49
(g70
g51
NtRp1108
(dp1109
g54
(dp1110
sg63
g1095
sg56
(lp1111
g49
(g50
g51
NtRp1112
(dp1113
g54
(dp1114
g62
I4
ssg63
g1108
sg56
(lp1115
S'fm-biosync-int1'
p1116
asbasbasbag49
(g65
g51
NtRp1117
(dp1118
g54
(dp1119
sg63
g588
sg56
(lp1120
g49
(g70
g51
NtRp1121
(dp1122
g54
(dp1123
g74
g75
ssg63
g1117
sg56
(lp1124
S'server_port'
p1125
asbag49
(g70
g51
NtRp1126
(dp1127
g54
(dp1128
g81
g82
ssg63
g1117
sg56
(lp1129
S':'
asbag49
(g70
g51
NtRp1130
(dp1131
g54
(dp1132
sg63
g1117
sg56
(lp1133
g49
(g50
g51
NtRp1134
(dp1135
g54
(dp1136
g62
I4
ssg63
g1130
sg56
(lp1137
S'8000'
p1138
asbasbasbag49
(g65
g51
NtRp1139
(dp1140
g54
(dp1141
sg63
g588
sg56
(lp1142
g49
(g70
g51
NtRp1143
(dp1144
g54
(dp1145
g74
g75
ssg63
g1139
sg56
(lp1146
S'server_protocol'
p1147
asbag49
(g70
g51
NtRp1148
(dp1149
g54
(dp1150
g81
g82
ssg63
g1139
sg56
(lp1151
S':'
asbag49
(g70
g51
NtRp1152
(dp1153
g54
(dp1154
sg63
g1139
sg56
(lp1155
g49
(g50
g51
NtRp1156
(dp1157
g54
(dp1158
g62
I4
ssg63
g1152
sg56
(lp1159
S'HTTP/1.1'
p1160
asbasbasbag49
(g65
g51
NtRp1161
(dp1162
g54
(dp1163
sg63
g588
sg56
(lp1164
g49
(g70
g51
NtRp1165
(dp1166
g54
(dp1167
g74
g75
ssg63
g1161
sg56
(lp1168
S'server_software'
p1169
asbag49
(g70
g51
NtRp1170
(dp1171
g54
(dp1172
g81
g82
ssg63
g1161
sg56
(lp1173
S':'
asbag49
(g70
g51
NtRp1174
(dp1175
g54
(dp1176
sg63
g1161
sg56
(lp1177
g49
(g50
g51
NtRp1178
(dp1179
g54
(dp1180
g62
I4
ssg63
g1174
sg56
(lp1181
S'Rocket 1.2.4'
p1182
asbasbasbag49
(g65
g51
NtRp1183
(dp1184
g54
(dp1185
sg63
g588
sg56
(lp1186
g49
(g70
g51
NtRp1187
(dp1188
g54
(dp1189
g74
g75
ssg63
g1183
sg56
(lp1190
S'web2py_crontype'
p1191
asbag49
(g70
g51
NtRp1192
(dp1193
g54
(dp1194
g81
g82
ssg63
g1183
sg56
(lp1195
S':'
asbag49
(g70
g51
NtRp1196
(dp1197
g54
(dp1198
sg63
g1183
sg56
(lp1199
g49
(g50
g51
NtRp1200
(dp1201
g54
(dp1202
g62
I4
ssg63
g1196
sg56
(lp1203
S'hard'
p1204
asbasbasbag49
(g65
g51
NtRp1205
(dp1206
g54
(dp1207
sg63
g588
sg56
(lp1208
g49
(g70
g51
NtRp1209
(dp1210
g54
(dp1211
g74
g75
ssg63
g1205
sg56
(lp1212
S'web2py_path'
p1213
asbag49
(g70
g51
NtRp1214
(dp1215
g54
(dp1216
g81
g82
ssg63
g1205
sg56
(lp1217
S':'
asbag49
(g70
g51
NtRp1218
(dp1219
g54
(dp1220
sg63
g1205
sg56
(lp1221
g49
(g50
g51
NtRp1222
(dp1223
g54
(dp1224
g62
I4
ssg63
g1218
sg56
(lp1225
g635
asbasbasbag49
(g65
g51
NtRp1226
(dp1227
g54
(dp1228
sg63
g588
sg56
(lp1229
g49
(g70
g51
NtRp1230
(dp1231
g54
(dp1232
g74
g75
ssg63
g1226
sg56
(lp1233
S'web2py_version'
p1234
asbag49
(g70
g51
NtRp1235
(dp1236
g54
(dp1237
g81
g82
ssg63
g1226
sg56
(lp1238
S':'
asbag49
(g70
g51
NtRp1239
(dp1240
g54
(dp1241
sg63
g1226
sg56
(lp1242
g49
(g50
g51
NtRp1243
(dp1244
g54
(dp1245
g62
I4
ssg63
g1239
sg56
(lp1246
g49
(g58
g51
NtRp1247
(dp1248
g54
(dp1249
g62
I3
ssg63
Nsg56
(lp1250
g49
(g65
g51
NtRp1251
(dp1252
g54
(dp1253
sg63
g1247
sg56
(lp1254
g49
(g70
g51
NtRp1255
(dp1256
g54
(dp1257
sg63
g1251
sg56
(lp1258
g49
(g50
g51
NtRp1259
(dp1260
g54
(dp1261
g62
I3
ssg63
g1255
sg56
(lp1262
S'1'
asbasbasbag49
(g65
g51
NtRp1263
(dp1264
g54
(dp1265
sg63
g1247
sg56
(lp1266
g49
(g70
g51
NtRp1267
(dp1268
g54
(dp1269
sg63
g1263
sg56
(lp1270
g49
(g50
g51
NtRp1271
(dp1272
g54
(dp1273
g62
I3
ssg63
g1267
sg56
(lp1274
S'99'
p1275
asbasbasbag49
(g65
g51
NtRp1276
(dp1277
g54
(dp1278
sg63
g1247
sg56
(lp1279
g49
(g70
g51
NtRp1280
(dp1281
g54
(dp1282
sg63
g1276
sg56
(lp1283
g49
(g50
g51
NtRp1284
(dp1285
g54
(dp1286
g62
I3
ssg63
g1280
sg56
(lp1287
S'7'
asbasbasbag49
(g65
g51
NtRp1288
(dp1289
g54
(dp1290
sg63
g1247
sg56
(lp1291
g49
(g70
g51
NtRp1292
(dp1293
g54
(dp1294
sg63
g1288
sg56
(lp1295
g49
(g50
g51
NtRp1296
(dp1297
g54
(dp1298
g62
I3
ssg63
g1292
sg56
(lp1299
S'datetime.datetime(2012, 3, 4, 22, 12, 8)'
p1300
asbasbasbag49
(g65
g51
NtRp1301
(dp1302
g54
(dp1303
sg63
g1247
sg56
(lp1304
g49
(g70
g51
NtRp1305
(dp1306
g54
(dp1307
sg63
g1301
sg56
(lp1308
g49
(g50
g51
NtRp1309
(dp1310
g54
(dp1311
g62
I3
ssg63
g1305
sg56
(lp1312
S'stable'
p1313
asbasbasbasbasbasbasbag49
(g65
g51
NtRp1314
(dp1315
g54
(dp1316
sg63
g588
sg56
(lp1317
g49
(g70
g51
NtRp1318
(dp1319
g54
(dp1320
g74
g75
ssg63
g1314
sg56
(lp1321
S'wsgi_errors'
p1322
asbag49
(g70
g51
NtRp1323
(dp1324
g54
(dp1325
g81
g82
ssg63
g1314
sg56
(lp1326
S':'
asbag49
(g70
g51
NtRp1327
(dp1328
g54
(dp1329
sg63
g1314
sg56
(lp1330
g49
(g50
g51
NtRp1331
(dp1332
g54
(dp1333
g62
I4
ssg63
g1327
sg56
(lp1334
S"<open file '<stderr>', mode 'w' at 0x009000B0>"
p1335
asbasbasbag49
(g65
g51
NtRp1336
(dp1337
g54
(dp1338
sg63
g588
sg56
(lp1339
g49
(g70
g51
NtRp1340
(dp1341
g54
(dp1342
g74
g75
ssg63
g1336
sg56
(lp1343
S'wsgi_file_wrapper'
p1344
asbag49
(g70
g51
NtRp1345
(dp1346
g54
(dp1347
g81
g82
ssg63
g1336
sg56
(lp1348
S':'
asbag49
(g70
g51
NtRp1349
(dp1350
g54
(dp1351
sg63
g1336
sg56
(lp1352
g49
(g50
g51
NtRp1353
(dp1354
g54
(dp1355
g62
I4
ssg63
g1349
sg56
(lp1356
S'<class wsgiref.util.FileWrapper at 0x016471E0>'
p1357
asbasbasbag49
(g65
g51
NtRp1358
(dp1359
g54
(dp1360
sg63
g588
sg56
(lp1361
g49
(g70
g51
NtRp1362
(dp1363
g54
(dp1364
g74
g75
ssg63
g1358
sg56
(lp1365
S'wsgi_input'
p1366
asbag49
(g70
g51
NtRp1367
(dp1368
g54
(dp1369
g81
g82
ssg63
g1358
sg56
(lp1370
S':'
asbag49
(g70
g51
NtRp1371
(dp1372
g54
(dp1373
sg63
g1358
sg56
(lp1374
g49
(g50
g51
NtRp1375
(dp1376
g54
(dp1377
g62
I4
ssg63
g1371
sg56
(lp1378
S'<socket._fileobject object at 0x0389CF30>'
p1379
asbasbasbag49
(g65
g51
NtRp1380
(dp1381
g54
(dp1382
sg63
g588
sg56
(lp1383
g49
(g70
g51
NtRp1384
(dp1385
g54
(dp1386
g74
g75
ssg63
g1380
sg56
(lp1387
S'wsgi_multiprocess'
p1388
asbag49
(g70
g51
NtRp1389
(dp1390
g54
(dp1391
g81
g82
ssg63
g1380
sg56
(lp1392
S':'
asbag49
(g70
g51
NtRp1393
(dp1394
g54
(dp1395
sg63
g1380
sg56
(lp1396
g49
(g50
g51
NtRp1397
(dp1398
g54
(dp1399
g62
I4
ssg63
g1393
sg56
(lp1400
g92
asbasbasbag49
(g65
g51
NtRp1401
(dp1402
g54
(dp1403
sg63
g588
sg56
(lp1404
g49
(g70
g51
NtRp1405
(dp1406
g54
(dp1407
g74
g75
ssg63
g1401
sg56
(lp1408
S'wsgi_multithread'
p1409
asbag49
(g70
g51
NtRp1410
(dp1411
g54
(dp1412
g81
g82
ssg63
g1401
sg56
(lp1413
S':'
asbag49
(g70
g51
NtRp1414
(dp1415
g54
(dp1416
sg63
g1401
sg56
(lp1417
g49
(g50
g51
NtRp1418
(dp1419
g54
(dp1420
g62
I4
ssg63
g1414
sg56
(lp1421
S'True'
p1422
asbasbasbag49
(g65
g51
NtRp1423
(dp1424
g54
(dp1425
sg63
g588
sg56
(lp1426
g49
(g70
g51
NtRp1427
(dp1428
g54
(dp1429
g74
g75
ssg63
g1423
sg56
(lp1430
S'wsgi_run_once'
p1431
asbag49
(g70
g51
NtRp1432
(dp1433
g54
(dp1434
g81
g82
ssg63
g1423
sg56
(lp1435
S':'
asbag49
(g70
g51
NtRp1436
(dp1437
g54
(dp1438
sg63
g1423
sg56
(lp1439
g49
(g50
g51
NtRp1440
(dp1441
g54
(dp1442
g62
I4
ssg63
g1436
sg56
(lp1443
g92
asbasbasbag49
(g65
g51
NtRp1444
(dp1445
g54
(dp1446
sg63
g588
sg56
(lp1447
g49
(g70
g51
NtRp1448
(dp1449
g54
(dp1450
g74
g75
ssg63
g1444
sg56
(lp1451
S'wsgi_url_scheme'
p1452
asbag49
(g70
g51
NtRp1453
(dp1454
g54
(dp1455
g81
g82
ssg63
g1444
sg56
(lp1456
S':'
asbag49
(g70
g51
NtRp1457
(dp1458
g54
(dp1459
sg63
g1444
sg56
(lp1460
g49
(g50
g51
NtRp1461
(dp1462
g54
(dp1463
g62
I4
ssg63
g1457
sg56
(lp1464
S'http'
p1465
asbasbasbag49
(g65
g51
NtRp1466
(dp1467
g54
(dp1468
sg63
g588
sg56
(lp1469
g49
(g70
g51
NtRp1470
(dp1471
g54
(dp1472
g74
g75
ssg63
g1466
sg56
(lp1473
S'wsgi_version'
p1474
asbag49
(g70
g51
NtRp1475
(dp1476
g54
(dp1477
g81
g82
ssg63
g1466
sg56
(lp1478
S':'
asbag49
(g70
g51
NtRp1479
(dp1480
g54
(dp1481
sg63
g1466
sg56
(lp1482
g49
(g50
g51
NtRp1483
(dp1484
g54
(dp1485
g62
I4
ssg63
g1479
sg56
(lp1486
g49
(g58
g51
NtRp1487
(dp1488
g54
(dp1489
g62
I3
ssg63
Nsg56
(lp1490
g49
(g65
g51
NtRp1491
(dp1492
g54
(dp1493
sg63
g1487
sg56
(lp1494
g49
(g70
g51
NtRp1495
(dp1496
g54
(dp1497
sg63
g1491
sg56
(lp1498
g49
(g50
g51
NtRp1499
(dp1500
g54
(dp1501
g62
I3
ssg63
g1495
sg56
(lp1502
S'1'
asbasbasbag49
(g65
g51
NtRp1503
(dp1504
g54
(dp1505
sg63
g1487
sg56
(lp1506
g49
(g70
g51
NtRp1507
(dp1508
g54
(dp1509
sg63
g1503
sg56
(lp1510
g49
(g50
g51
NtRp1511
(dp1512
g54
(dp1513
g62
I3
ssg63
g1507
sg56
(lp1514
S'0'
asbasbasbasbasbasbasbasbasbasbasbag49
(g65
g51
NtRp1515
(dp1516
g54
(dp1517
sg63
g59
sg56
(lp1518
g49
(g70
g51
NtRp1519
(dp1520
g54
(dp1521
g74
g75
ssg63
g1515
sg56
(lp1522
S'extension'
p1523
asbag49
(g70
g51
NtRp1524
(dp1525
g54
(dp1526
g81
g82
ssg63
g1515
sg56
(lp1527
S':'
asbag49
(g70
g51
NtRp1528
(dp1529
g54
(dp1530
sg63
g1515
sg56
(lp1531
g49
(g50
g51
NtRp1532
(dp1533
g54
(dp1534
g62
I5
ssg63
g1528
sg56
(lp1535
S'html'
p1536
asbasbasbag49
(g65
g51
NtRp1537
(dp1538
g54
(dp1539
sg63
g59
sg56
(lp1540
g49
(g70
g51
NtRp1541
(dp1542
g54
(dp1543
g74
g75
ssg63
g1537
sg56
(lp1544
S'folder'
p1545
asbag49
(g70
g51
NtRp1546
(dp1547
g54
(dp1548
g81
g82
ssg63
g1537
sg56
(lp1549
S':'
asbag49
(g70
g51
NtRp1550
(dp1551
g54
(dp1552
sg63
g1537
sg56
(lp1553
g49
(g50
g51
NtRp1554
(dp1555
g54
(dp1556
g62
I5
ssg63
g1550
sg56
(lp1557
S'C:\\Documents and Settings\\Guest\\Desktop\\web2py_win\\web2py\\applications\\Phylografter\\'
p1558
asbasbasbag49
(g65
g51
NtRp1559
(dp1560
g54
(dp1561
sg63
g59
sg56
(lp1562
g49
(g70
g51
NtRp1563
(dp1564
g54
(dp1565
g74
g75
ssg63
g1559
sg56
(lp1566
S'function'
p1567
asbag49
(g70
g51
NtRp1568
(dp1569
g54
(dp1570
g81
g82
ssg63
g1559
sg56
(lp1571
S':'
asbag49
(g70
g51
NtRp1572
(dp1573
g54
(dp1574
sg63
g1559
sg56
(lp1575
g49
(g50
g51
NtRp1576
(dp1577
g54
(dp1578
g62
I5
ssg63
g1572
sg56
(lp1579
S'index'
p1580
asbasbasbag49
(g65
g51
NtRp1581
(dp1582
g54
(dp1583
sg63
g59
sg56
(lp1584
g49
(g70
g51
NtRp1585
(dp1586
g54
(dp1587
g74
g75
ssg63
g1581
sg56
(lp1588
S'get_vars'
p1589
asbag49
(g70
g51
NtRp1590
(dp1591
g54
(dp1592
g81
g82
ssg63
g1581
sg56
(lp1593
S':'
asbag49
(g70
g51
NtRp1594
(dp1595
g54
(dp1596
sg63
g1581
sg56
(lp1597
g49
(g50
g51
NtRp1598
(dp1599
g54
(dp1600
g62
I5
ssg63
g1594
sg56
(lp1601
g49
(g58
g51
NtRp1602
(dp1603
g54
(dp1604
g62
I4
ssg63
Nsg56
(lp1605
sbasbasbasbag49
(g65
g51
NtRp1606
(dp1607
g54
(dp1608
sg63
g59
sg56
(lp1609
g49
(g70
g51
NtRp1610
(dp1611
g54
(dp1612
g74
g75
ssg63
g1606
sg56
(lp1613
S'global_settings'
p1614
asbag49
(g70
g51
NtRp1615
(dp1616
g54
(dp1617
g81
g82
ssg63
g1606
sg56
(lp1618
S':'
asbag49
(g70
g51
NtRp1619
(dp1620
g54
(dp1621
sg63
g1606
sg56
(lp1622
g49
(g50
g51
NtRp1623
(dp1624
g54
(dp1625
g62
I5
ssg63
g1619
sg56
(lp1626
g49
(g58
g51
NtRp1627
(dp1628
g54
(dp1629
g62
I4
ssg63
Nsg56
(lp1630
g49
(g65
g51
NtRp1631
(dp1632
g54
(dp1633
sg63
g1627
sg56
(lp1634
g49
(g70
g51
NtRp1635
(dp1636
g54
(dp1637
g74
g75
ssg63
g1631
sg56
(lp1638
g600
asbag49
(g70
g51
NtRp1639
(dp1640
g54
(dp1641
g81
g82
ssg63
g1631
sg56
(lp1642
S':'
asbag49
(g70
g51
NtRp1643
(dp1644
g54
(dp1645
sg63
g1631
sg56
(lp1646
g49
(g50
g51
NtRp1647
(dp1648
g54
(dp1649
g62
I4
ssg63
g1643
sg56
(lp1650
S"set(['C:\\\\Documents and Settings\\\\Guest\\\\Desktop\\\\web2py_win\\\\web2py\\\\applications\\\\Phylografter\\\\', 'C:\\\\Documents and Settings\\\\Guest\\\\Desktop\\\\web2py_win\\\\web2py\\\\applications\\\\welcome\\\\', 'C:\\\\Documents and Settings\\\\Guest\\\\Desktop\\\\web2py_win\\\\web2py\\\\applications\\\\admin\\\\'])"
p1651
asbasbasbag49
(g65
g51
NtRp1652
(dp1653
g54
(dp1654
sg63
g1627
sg56
(lp1655
g49
(g70
g51
NtRp1656
(dp1657
g54
(dp1658
g74
g75
ssg63
g1652
sg56
(lp1659
g622
asbag49
(g70
g51
NtRp1660
(dp1661
g54
(dp1662
g81
g82
ssg63
g1652
sg56
(lp1663
S':'
asbag49
(g70
g51
NtRp1664
(dp1665
g54
(dp1666
sg63
g1652
sg56
(lp1667
g49
(g50
g51
NtRp1668
(dp1669
g54
(dp1670
g62
I4
ssg63
g1664
sg56
(lp1671
g635
asbasbasbag49
(g65
g51
NtRp1672
(dp1673
g54
(dp1674
sg63
g1627
sg56
(lp1675
g49
(g70
g51
NtRp1676
(dp1677
g54
(dp1678
g74
g75
ssg63
g1672
sg56
(lp1679
g644
asbag49
(g70
g51
NtRp1680
(dp1681
g54
(dp1682
g81
g82
ssg63
g1672
sg56
(lp1683
S':'
asbag49
(g70
g51
NtRp1684
(dp1685
g54
(dp1686
sg63
g1672
sg56
(lp1687
g49
(g50
g51
NtRp1688
(dp1689
g54
(dp1690
g62
I4
ssg63
g1684
sg56
(lp1691
g49
(g58
g51
NtRp1692
(dp1693
g54
(dp1694
g62
I3
ssg63
Nsg56
(lp1695
sbasbasbasbag49
(g65
g51
NtRp1696
(dp1697
g54
(dp1698
sg63
g1627
sg56
(lp1699
g49
(g70
g51
NtRp1700
(dp1701
g54
(dp1702
g74
g75
ssg63
g1696
sg56
(lp1703
g669
asbag49
(g70
g51
NtRp1704
(dp1705
g54
(dp1706
g81
g82
ssg63
g1696
sg56
(lp1707
S':'
asbag49
(g70
g51
NtRp1708
(dp1709
g54
(dp1710
sg63
g1696
sg56
(lp1711
g49
(g50
g51
NtRp1712
(dp1713
g54
(dp1714
g62
I4
ssg63
g1708
sg56
(lp1715
S"<Values at 0x1879878: {'verbose': False, 'ip': '127.0.0.1', 'shutdown_timeout': 5, 'taskbar': False, 'nocron': False, 'pid_filename': 'httpserver.pid', 'maxthreads': None, 'softcron': False, 'server_name': 'fm-biosync-int1', 'bpython': False, 'nogui': False, 'port': 8000, 'extcron': False, 'debuglevel': 30, 'test': None, 'folder': 'C:\\\\Documents and Settings\\\\Guest\\\\Desktop\\\\web2py_win\\\\web2py', 'config': '', 'import_models': False, 'winservice': '', 'shell': None, 'run': '', 'log_filename': 'httpserver.log', 'args': [''], 'socket_timeout': 5, 'ssl_ca_certificate': None, 'scheduler': None, 'profiler_filename': None, 'ssl_private_key': '', 'password': '<ask>', 'request_queue_size': 5, 'ssl_certificate': '', 'cronjob': False, 'numthreads': None, 'quiet': False, 'interfaces': None, 'minthreads': None, 'timeout': 10, 'plain': False, 'nobanner': False}>"
p1716
asbasbasbag49
(g65
g51
NtRp1717
(dp1718
g54
(dp1719
sg63
g1627
sg56
(lp1720
g49
(g70
g51
NtRp1721
(dp1722
g54
(dp1723
g74
g75
ssg63
g1717
sg56
(lp1724
g691
asbag49
(g70
g51
NtRp1725
(dp1726
g54
(dp1727
g81
g82
ssg63
g1717
sg56
(lp1728
S':'
asbag49
(g70
g51
NtRp1729
(dp1730
g54
(dp1731
sg63
g1717
sg56
(lp1732
g49
(g50
g51
NtRp1733
(dp1734
g54
(dp1735
g62
I4
ssg63
g1729
sg56
(lp1736
S'set([])'
p1737
asbasbasbag49
(g65
g51
NtRp1738
(dp1739
g54
(dp1740
sg63
g1627
sg56
(lp1741
g49
(g70
g51
NtRp1742
(dp1743
g54
(dp1744
g74
g75
ssg63
g1738
sg56
(lp1745
g713
asbag49
(g70
g51
NtRp1746
(dp1747
g54
(dp1748
g81
g82
ssg63
g1738
sg56
(lp1749
S':'
asbag49
(g70
g51
NtRp1750
(dp1751
g54
(dp1752
sg63
g1738
sg56
(lp1753
g49
(g50
g51
NtRp1754
(dp1755
g54
(dp1756
g62
I4
ssg63
g1750
sg56
(lp1757
g92
asbasbasbag49
(g65
g51
NtRp1758
(dp1759
g54
(dp1760
sg63
g1627
sg56
(lp1761
g49
(g70
g51
NtRp1762
(dp1763
g54
(dp1764
g74
g75
ssg63
g1758
sg56
(lp1765
g734
asbag49
(g70
g51
NtRp1766
(dp1767
g54
(dp1768
g81
g82
ssg63
g1758
sg56
(lp1769
S':'
asbag49
(g70
g51
NtRp1770
(dp1771
g54
(dp1772
sg63
g1758
sg56
(lp1773
g49
(g50
g51
NtRp1774
(dp1775
g54
(dp1776
g62
I4
ssg63
g1770
sg56
(lp1777
g747
asbasbasbag49
(g65
g51
NtRp1778
(dp1779
g54
(dp1780
sg63
g1627
sg56
(lp1781
g49
(g70
g51
NtRp1782
(dp1783
g54
(dp1784
g74
g75
ssg63
g1778
sg56
(lp1785
g932
asbag49
(g70
g51
NtRp1786
(dp1787
g54
(dp1788
g81
g82
ssg63
g1778
sg56
(lp1789
S':'
asbag49
(g70
g51
NtRp1790
(dp1791
g54
(dp1792
sg63
g1778
sg56
(lp1793
g49
(g50
g51
NtRp1794
(dp1795
g54
(dp1796
g62
I4
ssg63
g1790
sg56
(lp1797
g92
asbasbasbag49
(g65
g51
NtRp1798
(dp1799
g54
(dp1800
sg63
g1627
sg56
(lp1801
g49
(g70
g51
NtRp1802
(dp1803
g54
(dp1804
g74
g75
ssg63
g1798
sg56
(lp1805
g953
asbag49
(g70
g51
NtRp1806
(dp1807
g54
(dp1808
g81
g82
ssg63
g1798
sg56
(lp1809
S':'
asbag49
(g70
g51
NtRp1810
(dp1811
g54
(dp1812
sg63
g1798
sg56
(lp1813
g49
(g50
g51
NtRp1814
(dp1815
g54
(dp1816
g62
I4
ssg63
g1810
sg56
(lp1817
g92
asbasbasbag49
(g65
g51
NtRp1818
(dp1819
g54
(dp1820
sg63
g1627
sg56
(lp1821
g49
(g70
g51
NtRp1822
(dp1823
g54
(dp1824
g74
g75
ssg63
g1818
sg56
(lp1825
g1191
asbag49
(g70
g51
NtRp1826
(dp1827
g54
(dp1828
g81
g82
ssg63
g1818
sg56
(lp1829
S':'
asbag49
(g70
g51
NtRp1830
(dp1831
g54
(dp1832
sg63
g1818
sg56
(lp1833
g49
(g50
g51
NtRp1834
(dp1835
g54
(dp1836
g62
I4
ssg63
g1830
sg56
(lp1837
g1204
asbasbasbag49
(g65
g51
NtRp1838
(dp1839
g54
(dp1840
sg63
g1627
sg56
(lp1841
g49
(g70
g51
NtRp1842
(dp1843
g54
(dp1844
g74
g75
ssg63
g1838
sg56
(lp1845
g1234
asbag49
(g70
g51
NtRp1846
(dp1847
g54
(dp1848
g81
g82
ssg63
g1838
sg56
(lp1849
S':'
asbag49
(g70
g51
NtRp1850
(dp1851
g54
(dp1852
sg63
g1838
sg56
(lp1853
g49
(g50
g51
NtRp1854
(dp1855
g54
(dp1856
g62
I4
ssg63
g1850
sg56
(lp1857
g49
(g58
g51
NtRp1858
(dp1859
g54
(dp1860
g62
I3
ssg63
Nsg56
(lp1861
g49
(g65
g51
NtRp1862
(dp1863
g54
(dp1864
sg63
g1858
sg56
(lp1865
g49
(g70
g51
NtRp1866
(dp1867
g54
(dp1868
sg63
g1862
sg56
(lp1869
g49
(g50
g51
NtRp1870
(dp1871
g54
(dp1872
g62
I3
ssg63
g1866
sg56
(lp1873
S'1'
asbasbasbag49
(g65
g51
NtRp1874
(dp1875
g54
(dp1876
sg63
g1858
sg56
(lp1877
g49
(g70
g51
NtRp1878
(dp1879
g54
(dp1880
sg63
g1874
sg56
(lp1881
g49
(g50
g51
NtRp1882
(dp1883
g54
(dp1884
g62
I3
ssg63
g1878
sg56
(lp1885
S'99'
p1886
asbasbasbag49
(g65
g51
NtRp1887
(dp1888
g54
(dp1889
sg63
g1858
sg56
(lp1890
g49
(g70
g51
NtRp1891
(dp1892
g54
(dp1893
sg63
g1887
sg56
(lp1894
g49
(g50
g51
NtRp1895
(dp1896
g54
(dp1897
g62
I3
ssg63
g1891
sg56
(lp1898
S'7'
asbasbasbag49
(g65
g51
NtRp1899
(dp1900
g54
(dp1901
sg63
g1858
sg56
(lp1902
g49
(g70
g51
NtRp1903
(dp1904
g54
(dp1905
sg63
g1899
sg56
(lp1906
g49
(g50
g51
NtRp1907
(dp1908
g54
(dp1909
g62
I3
ssg63
g1903
sg56
(lp1910
S'datetime.datetime(2012, 3, 4, 22, 12, 8)'
p1911
asbasbasbag49
(g65
g51
NtRp1912
(dp1913
g54
(dp1914
sg63
g1858
sg56
(lp1915
g49
(g70
g51
NtRp1916
(dp1917
g54
(dp1918
sg63
g1912
sg56
(lp1919
g49
(g50
g51
NtRp1920
(dp1921
g54
(dp1922
g62
I3
ssg63
g1916
sg56
(lp1923
g1313
asbasbasbasbasbasbasbasbasbasbasbag49
(g65
g51
NtRp1924
(dp1925
g54
(dp1926
sg63
g59
sg56
(lp1927
g49
(g70
g51
NtRp1928
(dp1929
g54
(dp1930
g74
g75
ssg63
g1924
sg56
(lp1931
S'is_https'
p1932
asbag49
(g70
g51
NtRp1933
(dp1934
g54
(dp1935
g81
g82
ssg63
g1924
sg56
(lp1936
S':'
asbag49
(g70
g51
NtRp1937
(dp1938
g54
(dp1939
sg63
g1924
sg56
(lp1940
g49
(g50
g51
NtRp1941
(dp1942
g54
(dp1943
g62
I5
ssg63
g1937
sg56
(lp1944
g92
asbasbasbag49
(g65
g51
NtRp1945
(dp1946
g54
(dp1947
sg63
g59
sg56
(lp1948
g49
(g70
g51
NtRp1949
(dp1950
g54
(dp1951
g74
g75
ssg63
g1945
sg56
(lp1952
S'is_local'
p1953
asbag49
(g70
g51
NtRp1954
(dp1955
g54
(dp1956
g81
g82
ssg63
g1945
sg56
(lp1957
S':'
asbag49
(g70
g51
NtRp1958
(dp1959
g54
(dp1960
sg63
g1945
sg56
(lp1961
g49
(g50
g51
NtRp1962
(dp1963
g54
(dp1964
g62
I5
ssg63
g1958
sg56
(lp1965
g1422
asbasbasbag49
(g65
g51
NtRp1966
(dp1967
g54
(dp1968
sg63
g59
sg56
(lp1969
g49
(g70
g51
NtRp1970
(dp1971
g54
(dp1972
g74
g75
ssg63
g1966
sg56
(lp1973
S'is_restful'
p1974
asbag49
(g70
g51
NtRp1975
(dp1976
g54
(dp1977
g81
g82
ssg63
g1966
sg56
(lp1978
S':'
asbag49
(g70
g51
NtRp1979
(dp1980
g54
(dp1981
sg63
g1966
sg56
(lp1982
g49
(g50
g51
NtRp1983
(dp1984
g54
(dp1985
g62
I5
ssg63
g1979
sg56
(lp1986
g92
asbasbasbag49
(g65
g51
NtRp1987
(dp1988
g54
(dp1989
sg63
g59
sg56
(lp1990
g49
(g70
g51
NtRp1991
(dp1992
g54
(dp1993
g74
g75
ssg63
g1987
sg56
(lp1994
S'now'
p1995
asbag49
(g70
g51
NtRp1996
(dp1997
g54
(dp1998
g81
g82
ssg63
g1987
sg56
(lp1999
S':'
asbag49
(g70
g51
NtRp2000
(dp2001
g54
(dp2002
sg63
g1987
sg56
(lp2003
g49
(g50
g51
NtRp2004
(dp2005
g54
(dp2006
g62
I5
ssg63
g2000
sg56
(lp2007
S'datetime.datetime(2012, 6, 13, 12, 29, 26, 140000)'
p2008
asbasbasbag49
(g65
g51
NtRp2009
(dp2010
g54
(dp2011
sg63
g59
sg56
(lp2012
g49
(g70
g51
NtRp2013
(dp2014
g54
(dp2015
g74
g75
ssg63
g2009
sg56
(lp2016
S'post_vars'
p2017
asbag49
(g70
g51
NtRp2018
(dp2019
g54
(dp2020
g81
g82
ssg63
g2009
sg56
(lp2021
S':'
asbag49
(g70
g51
NtRp2022
(dp2023
g54
(dp2024
sg63
g2009
sg56
(lp2025
g49
(g50
g51
NtRp2026
(dp2027
g54
(dp2028
g62
I5
ssg63
g2022
sg56
(lp2029
g49
(g58
g51
NtRp2030
(dp2031
g54
(dp2032
g62
I4
ssg63
Nsg56
(lp2033
sbasbasbasbag49
(g65
g51
NtRp2034
(dp2035
g54
(dp2036
sg63
g59
sg56
(lp2037
g49
(g70
g51
NtRp2038
(dp2039
g54
(dp2040
g74
g75
ssg63
g2034
sg56
(lp2041
S'url'
p2042
asbag49
(g70
g51
NtRp2043
(dp2044
g54
(dp2045
g81
g82
ssg63
g2034
sg56
(lp2046
S':'
asbag49
(g70
g51
NtRp2047
(dp2048
g54
(dp2049
sg63
g2034
sg56
(lp2050
g49
(g50
g51
NtRp2051
(dp2052
g54
(dp2053
g62
I5
ssg63
g2047
sg56
(lp2054
S'/Phylografter/default/index'
p2055
asbasbasbag49
(g65
g51
NtRp2056
(dp2057
g54
(dp2058
sg63
g59
sg56
(lp2059
g49
(g70
g51
NtRp2060
(dp2061
g54
(dp2062
g74
g75
ssg63
g2056
sg56
(lp2063
S'utcnow'
p2064
asbag49
(g70
g51
NtRp2065
(dp2066
g54
(dp2067
g81
g82
ssg63
g2056
sg56
(lp2068
S':'
asbag49
(g70
g51
NtRp2069
(dp2070
g54
(dp2071
sg63
g2056
sg56
(lp2072
g49
(g50
g51
NtRp2073
(dp2074
g54
(dp2075
g62
I5
ssg63
g2069
sg56
(lp2076
S'datetime.datetime(2012, 6, 13, 17, 29, 26, 140000)'
p2077
asbasbasbag49
(g65
g51
NtRp2078
(dp2079
g54
(dp2080
sg63
g59
sg56
(lp2081
g49
(g70
g51
NtRp2082
(dp2083
g54
(dp2084
g74
g75
ssg63
g2078
sg56
(lp2085
S'uuid'
p2086
asbag49
(g70
g51
NtRp2087
(dp2088
g54
(dp2089
g81
g82
ssg63
g2078
sg56
(lp2090
S':'
asbag49
(g70
g51
NtRp2091
(dp2092
g54
(dp2093
sg63
g2078
sg56
(lp2094
g49
(g50
g51
NtRp2095
(dp2096
g54
(dp2097
g62
I5
ssg63
g2091
sg56
(lp2098
S'Phylografter/127.0.0.1.2012-06-13.12-29-26.b088692d-5276-4006-b48a-0244c202a2fa'
p2099
asbasbasbag49
(g65
g51
NtRp2100
(dp2101
g54
(dp2102
sg63
g59
sg56
(lp2103
g49
(g70
g51
NtRp2104
(dp2105
g54
(dp2106
g74
g75
ssg63
g2100
sg56
(lp2107
S'vars'
p2108
asbag49
(g70
g51
NtRp2109
(dp2110
g54
(dp2111
g81
g82
ssg63
g2100
sg56
(lp2112
S':'
asbag49
(g70
g51
NtRp2113
(dp2114
g54
(dp2115
sg63
g2100
sg56
(lp2116
g49
(g50
g51
NtRp2117
(dp2118
g54
(dp2119
g62
I5
ssg63
g2113
sg56
(lp2120
g49
(g58
g51
NtRp2121
(dp2122
g54
(dp2123
g62
I4
ssg63
Nsg56
(lp2124
sbasbasbasbag49
(g65
g51
NtRp2125
(dp2126
g54
(dp2127
sg63
g59
sg56
(lp2128
g49
(g70
g51
NtRp2129
(dp2130
g54
(dp2131
g74
g75
ssg63
g2125
sg56
(lp2132
S'wsgi'
p2133
asbag49
(g70
g51
NtRp2134
(dp2135
g54
(dp2136
g81
g82
ssg63
g2125
sg56
(lp2137
S':'
asbag49
(g70
g51
NtRp2138
(dp2139
g54
(dp2140
sg63
g2125
sg56
(lp2141
g49
(g50
g51
NtRp2142
(dp2143
g54
(dp2144
g62
I5
ssg63
g2138
sg56
(lp2145
g49
(g58
g51
NtRp2146
(dp2147
g54
(dp2148
g62
I4
ssg63
Nsg56
(lp2149
g49
(g65
g51
NtRp2150
(dp2151
g54
(dp2152
sg63
g2146
sg56
(lp2153
g49
(g70
g51
NtRp2154
(dp2155
g54
(dp2156
g74
g75
ssg63
g2150
sg56
(lp2157
S'environ'
p2158
asbag49
(g70
g51
NtRp2159
(dp2160
g54
(dp2161
g81
g82
ssg63
g2150
sg56
(lp2162
S':'
asbag49
(g70
g51
NtRp2163
(dp2164
g54
(dp2165
sg63
g2150
sg56
(lp2166
g49
(g50
g51
NtRp2167
(dp2168
g54
(dp2169
g62
I4
ssg63
g2163
sg56
(lp2170
g49
(g58
g51
NtRp2171
(dp2172
g54
(dp2173
g62
I3
ssg63
Nsg56
(lp2174
g49
(g65
g51
NtRp2175
(dp2176
g54
(dp2177
sg63
g2171
sg56
(lp2178
g49
(g70
g51
NtRp2179
(dp2180
g54
(dp2181
g74
g75
ssg63
g2175
sg56
(lp2182
S'HTTP_ACCEPT'
p2183
asbag49
(g70
g51
NtRp2184
(dp2185
g54
(dp2186
g81
g82
ssg63
g2175
sg56
(lp2187
S':'
asbag49
(g70
g51
NtRp2188
(dp2189
g54
(dp2190
sg63
g2175
sg56
(lp2191
g49
(g50
g51
NtRp2192
(dp2193
g54
(dp2194
g62
I3
ssg63
g2188
sg56
(lp2195
g769
asbasbasbag49
(g65
g51
NtRp2196
(dp2197
g54
(dp2198
sg63
g2171
sg56
(lp2199
g49
(g70
g51
NtRp2200
(dp2201
g54
(dp2202
g74
g75
ssg63
g2196
sg56
(lp2203
S'HTTP_ACCEPT_CHARSET'
p2204
asbag49
(g70
g51
NtRp2205
(dp2206
g54
(dp2207
g81
g82
ssg63
g2196
sg56
(lp2208
S':'
asbag49
(g70
g51
NtRp2209
(dp2210
g54
(dp2211
sg63
g2196
sg56
(lp2212
g49
(g50
g51
NtRp2213
(dp2214
g54
(dp2215
g62
I3
ssg63
g2209
sg56
(lp2216
g791
asbasbasbag49
(g65
g51
NtRp2217
(dp2218
g54
(dp2219
sg63
g2171
sg56
(lp2220
g49
(g70
g51
NtRp2221
(dp2222
g54
(dp2223
g74
g75
ssg63
g2217
sg56
(lp2224
S'HTTP_ACCEPT_ENCODING'
p2225
asbag49
(g70
g51
NtRp2226
(dp2227
g54
(dp2228
g81
g82
ssg63
g2217
sg56
(lp2229
S':'
asbag49
(g70
g51
NtRp2230
(dp2231
g54
(dp2232
sg63
g2217
sg56
(lp2233
g49
(g50
g51
NtRp2234
(dp2235
g54
(dp2236
g62
I3
ssg63
g2230
sg56
(lp2237
g813
asbasbasbag49
(g65
g51
NtRp2238
(dp2239
g54
(dp2240
sg63
g2171
sg56
(lp2241
g49
(g70
g51
NtRp2242
(dp2243
g54
(dp2244
g74
g75
ssg63
g2238
sg56
(lp2245
S'HTTP_ACCEPT_LANGUAGE'
p2246
asbag49
(g70
g51
NtRp2247
(dp2248
g54
(dp2249
g81
g82
ssg63
g2238
sg56
(lp2250
S':'
asbag49
(g70
g51
NtRp2251
(dp2252
g54
(dp2253
sg63
g2238
sg56
(lp2254
g49
(g50
g51
NtRp2255
(dp2256
g54
(dp2257
g62
I3
ssg63
g2251
sg56
(lp2258
g835
asbasbasbag49
(g65
g51
NtRp2259
(dp2260
g54
(dp2261
sg63
g2171
sg56
(lp2262
g49
(g70
g51
NtRp2263
(dp2264
g54
(dp2265
g74
g75
ssg63
g2259
sg56
(lp2266
S'HTTP_CONNECTION'
p2267
asbag49
(g70
g51
NtRp2268
(dp2269
g54
(dp2270
g81
g82
ssg63
g2259
sg56
(lp2271
S':'
asbag49
(g70
g51
NtRp2272
(dp2273
g54
(dp2274
sg63
g2259
sg56
(lp2275
g49
(g50
g51
NtRp2276
(dp2277
g54
(dp2278
g62
I3
ssg63
g2272
sg56
(lp2279
g857
asbasbasbag49
(g65
g51
NtRp2280
(dp2281
g54
(dp2282
sg63
g2171
sg56
(lp2283
g49
(g70
g51
NtRp2284
(dp2285
g54
(dp2286
g74
g75
ssg63
g2280
sg56
(lp2287
S'HTTP_COOKIE'
p2288
asbag49
(g70
g51
NtRp2289
(dp2290
g54
(dp2291
g81
g82
ssg63
g2280
sg56
(lp2292
S':'
asbag49
(g70
g51
NtRp2293
(dp2294
g54
(dp2295
sg63
g2280
sg56
(lp2296
g49
(g50
g51
NtRp2297
(dp2298
g54
(dp2299
g62
I3
ssg63
g2293
sg56
(lp2300
g879
asbasbasbag49
(g65
g51
NtRp2301
(dp2302
g54
(dp2303
sg63
g2171
sg56
(lp2304
g49
(g70
g51
NtRp2305
(dp2306
g54
(dp2307
g74
g75
ssg63
g2301
sg56
(lp2308
S'HTTP_HOST'
p2309
asbag49
(g70
g51
NtRp2310
(dp2311
g54
(dp2312
g81
g82
ssg63
g2301
sg56
(lp2313
S':'
asbag49
(g70
g51
NtRp2314
(dp2315
g54
(dp2316
sg63
g2301
sg56
(lp2317
g49
(g50
g51
NtRp2318
(dp2319
g54
(dp2320
g62
I3
ssg63
g2314
sg56
(lp2321
g901
asbasbasbag49
(g65
g51
NtRp2322
(dp2323
g54
(dp2324
sg63
g2171
sg56
(lp2325
g49
(g70
g51
NtRp2326
(dp2327
g54
(dp2328
g74
g75
ssg63
g2322
sg56
(lp2329
S'HTTP_USER_AGENT'
p2330
asbag49
(g70
g51
NtRp2331
(dp2332
g54
(dp2333
g81
g82
ssg63
g2322
sg56
(lp2334
S':'
asbag49
(g70
g51
NtRp2335
(dp2336
g54
(dp2337
sg63
g2322
sg56
(lp2338
g49
(g50
g51
NtRp2339
(dp2340
g54
(dp2341
g62
I3
ssg63
g2335
sg56
(lp2342
g923
asbasbasbag49
(g65
g51
NtRp2343
(dp2344
g54
(dp2345
sg63
g2171
sg56
(lp2346
g49
(g70
g51
NtRp2347
(dp2348
g54
(dp2349
g74
g75
ssg63
g2343
sg56
(lp2350
S'PATH_INFO'
p2351
asbag49
(g70
g51
NtRp2352
(dp2353
g54
(dp2354
g81
g82
ssg63
g2343
sg56
(lp2355
S':'
asbag49
(g70
g51
NtRp2356
(dp2357
g54
(dp2358
sg63
g2343
sg56
(lp2359
g49
(g50
g51
NtRp2360
(dp2361
g54
(dp2362
g62
I3
ssg63
g2356
sg56
(lp2363
g987
asbasbasbag49
(g65
g51
NtRp2364
(dp2365
g54
(dp2366
sg63
g2171
sg56
(lp2367
g49
(g70
g51
NtRp2368
(dp2369
g54
(dp2370
g74
g75
ssg63
g2364
sg56
(lp2371
S'QUERY_STRING'
p2372
asbag49
(g70
g51
NtRp2373
(dp2374
g54
(dp2375
g81
g82
ssg63
g2364
sg56
(lp2376
S':'
asbag49
(g70
g51
NtRp2377
(dp2378
g54
(dp2379
sg63
g2364
sg56
(lp2380
g49
(g50
g51
NtRp2381
(dp2382
g54
(dp2383
g62
I3
ssg63
g2377
sg56
(lp2384
S''
asbasbasbag49
(g65
g51
NtRp2385
(dp2386
g54
(dp2387
sg63
g2171
sg56
(lp2388
g49
(g70
g51
NtRp2389
(dp2390
g54
(dp2391
g74
g75
ssg63
g2385
sg56
(lp2392
S'REMOTE_ADDR'
p2393
asbag49
(g70
g51
NtRp2394
(dp2395
g54
(dp2396
g81
g82
ssg63
g2385
sg56
(lp2397
S':'
asbag49
(g70
g51
NtRp2398
(dp2399
g54
(dp2400
sg63
g2385
sg56
(lp2401
g49
(g50
g51
NtRp2402
(dp2403
g54
(dp2404
g62
I3
ssg63
g2398
sg56
(lp2405
g182
asbasbasbag49
(g65
g51
NtRp2406
(dp2407
g54
(dp2408
sg63
g2171
sg56
(lp2409
g49
(g70
g51
NtRp2410
(dp2411
g54
(dp2412
g74
g75
ssg63
g2406
sg56
(lp2413
S'REMOTE_PORT'
p2414
asbag49
(g70
g51
NtRp2415
(dp2416
g54
(dp2417
g81
g82
ssg63
g2406
sg56
(lp2418
S':'
asbag49
(g70
g51
NtRp2419
(dp2420
g54
(dp2421
sg63
g2406
sg56
(lp2422
g49
(g50
g51
NtRp2423
(dp2424
g54
(dp2425
g62
I3
ssg63
g2419
sg56
(lp2426
g1051
asbasbasbag49
(g65
g51
NtRp2427
(dp2428
g54
(dp2429
sg63
g2171
sg56
(lp2430
g49
(g70
g51
NtRp2431
(dp2432
g54
(dp2433
g74
g75
ssg63
g2427
sg56
(lp2434
S'REQUEST_METHOD'
p2435
asbag49
(g70
g51
NtRp2436
(dp2437
g54
(dp2438
g81
g82
ssg63
g2427
sg56
(lp2439
S':'
asbag49
(g70
g51
NtRp2440
(dp2441
g54
(dp2442
sg63
g2427
sg56
(lp2443
g49
(g50
g51
NtRp2444
(dp2445
g54
(dp2446
g62
I3
ssg63
g2440
sg56
(lp2447
g1073
asbasbasbag49
(g65
g51
NtRp2448
(dp2449
g54
(dp2450
sg63
g2171
sg56
(lp2451
g49
(g70
g51
NtRp2452
(dp2453
g54
(dp2454
g74
g75
ssg63
g2448
sg56
(lp2455
S'SCRIPT_NAME'
p2456
asbag49
(g70
g51
NtRp2457
(dp2458
g54
(dp2459
g81
g82
ssg63
g2448
sg56
(lp2460
S':'
asbag49
(g70
g51
NtRp2461
(dp2462
g54
(dp2463
sg63
g2448
sg56
(lp2464
g49
(g50
g51
NtRp2465
(dp2466
g54
(dp2467
g62
I3
ssg63
g2461
sg56
(lp2468
S''
asbasbasbag49
(g65
g51
NtRp2469
(dp2470
g54
(dp2471
sg63
g2171
sg56
(lp2472
g49
(g70
g51
NtRp2473
(dp2474
g54
(dp2475
g74
g75
ssg63
g2469
sg56
(lp2476
S'SERVER_NAME'
p2477
asbag49
(g70
g51
NtRp2478
(dp2479
g54
(dp2480
g81
g82
ssg63
g2469
sg56
(lp2481
S':'
asbag49
(g70
g51
NtRp2482
(dp2483
g54
(dp2484
sg63
g2469
sg56
(lp2485
g49
(g50
g51
NtRp2486
(dp2487
g54
(dp2488
g62
I3
ssg63
g2482
sg56
(lp2489
g1116
asbasbasbag49
(g65
g51
NtRp2490
(dp2491
g54
(dp2492
sg63
g2171
sg56
(lp2493
g49
(g70
g51
NtRp2494
(dp2495
g54
(dp2496
g74
g75
ssg63
g2490
sg56
(lp2497
S'SERVER_PORT'
p2498
asbag49
(g70
g51
NtRp2499
(dp2500
g54
(dp2501
g81
g82
ssg63
g2490
sg56
(lp2502
S':'
asbag49
(g70
g51
NtRp2503
(dp2504
g54
(dp2505
sg63
g2490
sg56
(lp2506
g49
(g50
g51
NtRp2507
(dp2508
g54
(dp2509
g62
I3
ssg63
g2503
sg56
(lp2510
g1138
asbasbasbag49
(g65
g51
NtRp2511
(dp2512
g54
(dp2513
sg63
g2171
sg56
(lp2514
g49
(g70
g51
NtRp2515
(dp2516
g54
(dp2517
g74
g75
ssg63
g2511
sg56
(lp2518
S'SERVER_PROTOCOL'
p2519
asbag49
(g70
g51
NtRp2520
(dp2521
g54
(dp2522
g81
g82
ssg63
g2511
sg56
(lp2523
S':'
asbag49
(g70
g51
NtRp2524
(dp2525
g54
(dp2526
sg63
g2511
sg56
(lp2527
g49
(g50
g51
NtRp2528
(dp2529
g54
(dp2530
g62
I3
ssg63
g2524
sg56
(lp2531
g1160
asbasbasbag49
(g65
g51
NtRp2532
(dp2533
g54
(dp2534
sg63
g2171
sg56
(lp2535
g49
(g70
g51
NtRp2536
(dp2537
g54
(dp2538
g74
g75
ssg63
g2532
sg56
(lp2539
S'SERVER_SOFTWARE'
p2540
asbag49
(g70
g51
NtRp2541
(dp2542
g54
(dp2543
g81
g82
ssg63
g2532
sg56
(lp2544
S':'
asbag49
(g70
g51
NtRp2545
(dp2546
g54
(dp2547
sg63
g2532
sg56
(lp2548
g49
(g50
g51
NtRp2549
(dp2550
g54
(dp2551
g62
I3
ssg63
g2545
sg56
(lp2552
g1182
asbasbasbag49
(g65
g51
NtRp2553
(dp2554
g54
(dp2555
sg63
g2171
sg56
(lp2556
g49
(g70
g51
NtRp2557
(dp2558
g54
(dp2559
g74
g75
ssg63
g2553
sg56
(lp2560
S'wsgi.errors'
p2561
asbag49
(g70
g51
NtRp2562
(dp2563
g54
(dp2564
g81
g82
ssg63
g2553
sg56
(lp2565
S':'
asbag49
(g70
g51
NtRp2566
(dp2567
g54
(dp2568
sg63
g2553
sg56
(lp2569
g49
(g50
g51
NtRp2570
(dp2571
g54
(dp2572
g62
I3
ssg63
g2566
sg56
(lp2573
S"<open file '<stderr>', mode 'w' at 0x009000B0>"
p2574
asbasbasbag49
(g65
g51
NtRp2575
(dp2576
g54
(dp2577
sg63
g2171
sg56
(lp2578
g49
(g70
g51
NtRp2579
(dp2580
g54
(dp2581
g74
g75
ssg63
g2575
sg56
(lp2582
S'wsgi.file_wrapper'
p2583
asbag49
(g70
g51
NtRp2584
(dp2585
g54
(dp2586
g81
g82
ssg63
g2575
sg56
(lp2587
S':'
asbag49
(g70
g51
NtRp2588
(dp2589
g54
(dp2590
sg63
g2575
sg56
(lp2591
g49
(g50
g51
NtRp2592
(dp2593
g54
(dp2594
g62
I3
ssg63
g2588
sg56
(lp2595
S'<class wsgiref.util.FileWrapper at 0x016471E0>'
p2596
asbasbasbag49
(g65
g51
NtRp2597
(dp2598
g54
(dp2599
sg63
g2171
sg56
(lp2600
g49
(g70
g51
NtRp2601
(dp2602
g54
(dp2603
g74
g75
ssg63
g2597
sg56
(lp2604
S'wsgi.input'
p2605
asbag49
(g70
g51
NtRp2606
(dp2607
g54
(dp2608
g81
g82
ssg63
g2597
sg56
(lp2609
S':'
asbag49
(g70
g51
NtRp2610
(dp2611
g54
(dp2612
sg63
g2597
sg56
(lp2613
g49
(g50
g51
NtRp2614
(dp2615
g54
(dp2616
g62
I3
ssg63
g2610
sg56
(lp2617
S'<cStringIO.StringO object at 0x01A1E8E0>'
p2618
asbasbasbag49
(g65
g51
NtRp2619
(dp2620
g54
(dp2621
sg63
g2171
sg56
(lp2622
g49
(g70
g51
NtRp2623
(dp2624
g54
(dp2625
g74
g75
ssg63
g2619
sg56
(lp2626
S'wsgi.multiprocess'
p2627
asbag49
(g70
g51
NtRp2628
(dp2629
g54
(dp2630
g81
g82
ssg63
g2619
sg56
(lp2631
S':'
asbag49
(g70
g51
NtRp2632
(dp2633
g54
(dp2634
sg63
g2619
sg56
(lp2635
g49
(g50
g51
NtRp2636
(dp2637
g54
(dp2638
g62
I3
ssg63
g2632
sg56
(lp2639
g92
asbasbasbag49
(g65
g51
NtRp2640
(dp2641
g54
(dp2642
sg63
g2171
sg56
(lp2643
g49
(g70
g51
NtRp2644
(dp2645
g54
(dp2646
g74
g75
ssg63
g2640
sg56
(lp2647
S'wsgi.multithread'
p2648
asbag49
(g70
g51
NtRp2649
(dp2650
g54
(dp2651
g81
g82
ssg63
g2640
sg56
(lp2652
S':'
asbag49
(g70
g51
NtRp2653
(dp2654
g54
(dp2655
sg63
g2640
sg56
(lp2656
g49
(g50
g51
NtRp2657
(dp2658
g54
(dp2659
g62
I3
ssg63
g2653
sg56
(lp2660
g1422
asbasbasbag49
(g65
g51
NtRp2661
(dp2662
g54
(dp2663
sg63
g2171
sg56
(lp2664
g49
(g70
g51
NtRp2665
(dp2666
g54
(dp2667
g74
g75
ssg63
g2661
sg56
(lp2668
S'wsgi.run_once'
p2669
asbag49
(g70
g51
NtRp2670
(dp2671
g54
(dp2672
g81
g82
ssg63
g2661
sg56
(lp2673
S':'
asbag49
(g70
g51
NtRp2674
(dp2675
g54
(dp2676
sg63
g2661
sg56
(lp2677
g49
(g50
g51
NtRp2678
(dp2679
g54
(dp2680
g62
I3
ssg63
g2674
sg56
(lp2681
g92
asbasbasbag49
(g65
g51
NtRp2682
(dp2683
g54
(dp2684
sg63
g2171
sg56
(lp2685
g49
(g70
g51
NtRp2686
(dp2687
g54
(dp2688
g74
g75
ssg63
g2682
sg56
(lp2689
S'wsgi.url_scheme'
p2690
asbag49
(g70
g51
NtRp2691
(dp2692
g54
(dp2693
g81
g82
ssg63
g2682
sg56
(lp2694
S':'
asbag49
(g70
g51
NtRp2695
(dp2696
g54
(dp2697
sg63
g2682
sg56
(lp2698
g49
(g50
g51
NtRp2699
(dp2700
g54
(dp2701
g62
I3
ssg63
g2695
sg56
(lp2702
g1465
asbasbasbag49
(g65
g51
NtRp2703
(dp2704
g54
(dp2705
sg63
g2171
sg56
(lp2706
g49
(g70
g51
NtRp2707
(dp2708
g54
(dp2709
g74
g75
ssg63
g2703
sg56
(lp2710
S'wsgi.version'
p2711
asbag49
(g70
g51
NtRp2712
(dp2713
g54
(dp2714
g81
g82
ssg63
g2703
sg56
(lp2715
S':'
asbag49
(g70
g51
NtRp2716
(dp2717
g54
(dp2718
sg63
g2703
sg56
(lp2719
g49
(g50
g51
NtRp2720
(dp2721
g54
(dp2722
g62
I3
ssg63
g2716
sg56
(lp2723
S'1'
asbasbasbasbasbasbasbasbasbasbasbasbasbsS'frames'
p2724
(lp2725
(dp2726
S'file'
p2727
S'C:\\Documents and Settings\\Guest\\Desktop\\web2py_win\\web2py\\gluon\\restricted.py'
p2728
sS'dump'
p2729
(dp2730
sS'lnum'
p2731
I205
sS'lines'
p2732
(dp2733
sS'call'
p2734
S'(code=\'import datetime, socket, os, sys\\nfrom ConfigPars...rted %s into taxon: %s" % (syn, i)\\n    \\n        \\n\', environment={\'A\': <class \'gluon.html.A\'>, \'Auth\': <class \'gluon.tools.Auth\'>, \'B\': <class \'gluon.html.B\'>, \'BEAUTIFY\': <class \'gluon.html.BEAUTIFY\'>, \'BODY\': <class \'gluon.html.BODY\'>, \'BR\': <class \'gluon.html.BR\'>, \'BUTTON\': <class \'gluon.html.BUTTON\'>, \'CAT\': <class \'gluon.html.CAT\'>, \'CENTER\': <class \'gluon.html.CENTER\'>, \'CLEANUP\': <class \'gluon.validators.CLEANUP\'>, ...}, layer=r\'C:\\Documents and Settings\\Guest\\Desktop\\web2py_win\\web2py\\applications\\Phylografter\\models\\db.py\')'
p2735
sS'func'
p2736
S'restricted'
p2737
sa(dp2738
g2727
S'C:\\Documents and Settings\\Guest\\Desktop\\web2py_win\\web2py\\applications\\Phylografter\\models\\db.py'
p2739
sg2729
(dp2740
sg2731
I77
sg2732
(dp2741
I72
S'#########################################################################'
p2742
sI73
S''
sI74
S'crud.settings.auth = None                      # =auth to enforce authorization on crud'
p2743
sI75
S''
sI76
S'# from http://www.web2pyslices.com/main/slices/take_slice/8'
p2744
sI77
S"clienttools = local_import('clienttools')"
p2745
sI78
S'page = clienttools.PageManager(globals())'
p2746
sI79
S'event = clienttools.EventManager(page)'
p2747
sI80
S'js = clienttools.ScriptManager(page) # javascript helpers'
p2748
sI81
S"jq = clienttools.JQuery # don't instantiate, just to shorten"
p2749
ssg2734
S'()'
p2750
sg2736
S'<module>'
p2751
sa(dp2752
g2727
S'C:\\Documents and Settings\\Guest\\Desktop\\web2py_win\\web2py\\gluon\\compileapp.py'
p2753
sg2729
(dp2754
sg2731
I405
sg2732
(dp2755
sg2734
S"(name='clienttools', reload=False, app='Phylografter')"
p2756
sg2736
S'<lambda>'
p2757
sa(dp2758
g2727
S'C:\\Documents and Settings\\Guest\\Desktop\\web2py_win\\web2py\\gluon\\compileapp.py'
p2759
sg2729
(dp2760
sg2731
I324
sg2732
(dp2761
sg2734
S"(name='applications.Phylografter.modules.clienttools', reload_force=False, app='Phylografter')"
p2762
sg2736
S'local_import_aux'
p2763
sa(dp2764
g2727
S'C:\\Documents and Settings\\Guest\\Desktop\\web2py_win\\web2py\\gluon\\custom_import.py'
p2765
sg2729
(dp2766
sg2731
I293
sg2732
(dp2767
sg2734
S"(self=<gluon.custom_import._Web2pyImporter object at 0x0180D2B0>, name='applications.Phylografter.modules.clienttools', globals={}, locals={}, fromlist=[], level=-1)"
p2768
sg2736
S'__call__'
p2769
sa(dp2770
g2727
S'C:\\Documents and Settings\\Guest\\Desktop\\web2py_win\\web2py\\gluon\\custom_import.py'
p2771
sg2729
(dp2772
sg2731
I78
sg2732
(dp2773
sg2734
S"(self=<gluon.custom_import._Web2pyImporter object at 0x0180D2B0>, name='applications.Phylografter.modules.clienttools', globals={}, locals={}, fromlist=[], level=-1)"
p2774
sg2736
g2769
sasS'pyver'
p2775
S'Python 2.5.4: C:\\Documents and Settings\\Guest\\Desktop\\web2py_win\\web2py\\web2py.exe'
p2776
sS'session'
p2777
g49
(g50
g51
NtRp2778
(dp2779
g54
(dp2780
sg56
(lp2781
g49
(g58
g51
NtRp2782
(dp2783
g54
(dp2784
g62
I5
ssg63
Nsg56
(lp2785
sbasbsS'etype'
p2786
S"<type 'exceptions.ImportError'>"
p2787
sS'date'
p2788
S'Wed Jun 13 12:29:26 2012'
p2789
sS'response'
p2790
g49
(g50
g51
NtRp2791
(dp2792
g54
(dp2793
sg56
(lp2794
g49
(g58
g51
NtRp2795
(dp2796
g54
(dp2797
g62
I5
ssg63
Nsg56
(lp2798
g49
(g65
g51
NtRp2799
(dp2800
g54
(dp2801
sg63
g2795
sg56
(lp2802
g49
(g70
g51
NtRp2803
(dp2804
g54
(dp2805
g74
g75
ssg63
g2799
sg56
(lp2806
g147
asbag49
(g70
g51
NtRp2807
(dp2808
g54
(dp2809
g81
g82
ssg63
g2799
sg56
(lp2810
S':'
asbag49
(g70
g51
NtRp2811
(dp2812
g54
(dp2813
sg63
g2799
sg56
(lp2814
g49
(g50
g51
NtRp2815
(dp2816
g54
(dp2817
g62
I5
ssg63
g2811
sg56
(lp2818
S'<cStringIO.StringO object at 0x01A1EFE0>'
p2819
asbasbasbag49
(g65
g51
NtRp2820
(dp2821
g54
(dp2822
sg63
g2795
sg56
(lp2823
g49
(g70
g51
NtRp2824
(dp2825
g54
(dp2826
g74
g75
ssg63
g2820
sg56
(lp2827
g213
asbag49
(g70
g51
NtRp2828
(dp2829
g54
(dp2830
g81
g82
ssg63
g2820
sg56
(lp2831
S':'
asbag49
(g70
g51
NtRp2832
(dp2833
g54
(dp2834
sg63
g2820
sg56
(lp2835
g49
(g50
g51
NtRp2836
(dp2837
g54
(dp2838
g62
I5
ssg63
g2832
sg56
(lp2839
g49
(g58
g51
NtRp2840
(dp2841
g54
(dp2842
g62
I4
ssg63
Nsg56
(lp2843
g49
(g65
g51
NtRp2844
(dp2845
g54
(dp2846
sg63
g2840
sg56
(lp2847
g49
(g70
g51
NtRp2848
(dp2849
g54
(dp2850
g74
g75
ssg63
g2844
sg56
(lp2851
S'session_id_phylografter'
p2852
asbag49
(g70
g51
NtRp2853
(dp2854
g54
(dp2855
g81
g82
ssg63
g2844
sg56
(lp2856
S':'
asbag49
(g70
g51
NtRp2857
(dp2858
g54
(dp2859
sg63
g2844
sg56
(lp2860
g49
(g50
g51
NtRp2861
(dp2862
g54
(dp2863
g62
I4
ssg63
g2857
sg56
(lp2864
g49
(g58
g51
NtRp2865
(dp2866
g54
(dp2867
g62
I3
ssg63
Nsg56
(lp2868
g49
(g65
g51
NtRp2869
(dp2870
g54
(dp2871
sg63
g2865
sg56
(lp2872
g49
(g70
g51
NtRp2873
(dp2874
g54
(dp2875
g74
g75
ssg63
g2869
sg56
(lp2876
g263
asbag49
(g70
g51
NtRp2877
(dp2878
g54
(dp2879
g81
g82
ssg63
g2869
sg56
(lp2880
S':'
asbag49
(g70
g51
NtRp2881
(dp2882
g54
(dp2883
sg63
g2869
sg56
(lp2884
g49
(g50
g51
NtRp2885
(dp2886
g54
(dp2887
g62
I3
ssg63
g2881
sg56
(lp2888
S''
asbasbasbag49
(g65
g51
NtRp2889
(dp2890
g54
(dp2891
sg63
g2865
sg56
(lp2892
g49
(g70
g51
NtRp2893
(dp2894
g54
(dp2895
g74
g75
ssg63
g2889
sg56
(lp2896
g284
asbag49
(g70
g51
NtRp2897
(dp2898
g54
(dp2899
g81
g82
ssg63
g2889
sg56
(lp2900
S':'
asbag49
(g70
g51
NtRp2901
(dp2902
g54
(dp2903
sg63
g2889
sg56
(lp2904
g49
(g50
g51
NtRp2905
(dp2906
g54
(dp2907
g62
I3
ssg63
g2901
sg56
(lp2908
S''
asbasbasbag49
(g65
g51
NtRp2909
(dp2910
g54
(dp2911
sg63
g2865
sg56
(lp2912
g49
(g70
g51
NtRp2913
(dp2914
g54
(dp2915
g74
g75
ssg63
g2909
sg56
(lp2916
g305
asbag49
(g70
g51
NtRp2917
(dp2918
g54
(dp2919
g81
g82
ssg63
g2909
sg56
(lp2920
S':'
asbag49
(g70
g51
NtRp2921
(dp2922
g54
(dp2923
sg63
g2909
sg56
(lp2924
g49
(g50
g51
NtRp2925
(dp2926
g54
(dp2927
g62
I3
ssg63
g2921
sg56
(lp2928
S''
asbasbasbag49
(g65
g51
NtRp2929
(dp2930
g54
(dp2931
sg63
g2865
sg56
(lp2932
g49
(g70
g51
NtRp2933
(dp2934
g54
(dp2935
g74
g75
ssg63
g2929
sg56
(lp2936
g326
asbag49
(g70
g51
NtRp2937
(dp2938
g54
(dp2939
g81
g82
ssg63
g2929
sg56
(lp2940
S':'
asbag49
(g70
g51
NtRp2941
(dp2942
g54
(dp2943
sg63
g2929
sg56
(lp2944
g49
(g50
g51
NtRp2945
(dp2946
g54
(dp2947
g62
I3
ssg63
g2941
sg56
(lp2948
S''
asbasbasbag49
(g65
g51
NtRp2949
(dp2950
g54
(dp2951
sg63
g2865
sg56
(lp2952
g49
(g70
g51
NtRp2953
(dp2954
g54
(dp2955
g74
g75
ssg63
g2949
sg56
(lp2956
g347
asbag49
(g70
g51
NtRp2957
(dp2958
g54
(dp2959
g81
g82
ssg63
g2949
sg56
(lp2960
S':'
asbag49
(g70
g51
NtRp2961
(dp2962
g54
(dp2963
sg63
g2949
sg56
(lp2964
g49
(g50
g51
NtRp2965
(dp2966
g54
(dp2967
g62
I3
ssg63
g2961
sg56
(lp2968
S'/'
asbasbasbag49
(g65
g51
NtRp2969
(dp2970
g54
(dp2971
sg63
g2865
sg56
(lp2972
g49
(g70
g51
NtRp2973
(dp2974
g54
(dp2975
g74
g75
ssg63
g2969
sg56
(lp2976
g368
asbag49
(g70
g51
NtRp2977
(dp2978
g54
(dp2979
g81
g82
ssg63
g2969
sg56
(lp2980
S':'
asbag49
(g70
g51
NtRp2981
(dp2982
g54
(dp2983
sg63
g2969
sg56
(lp2984
g49
(g50
g51
NtRp2985
(dp2986
g54
(dp2987
g62
I3
ssg63
g2981
sg56
(lp2988
S''
asbasbasbag49
(g65
g51
NtRp2989
(dp2990
g54
(dp2991
sg63
g2865
sg56
(lp2992
g49
(g70
g51
NtRp2993
(dp2994
g54
(dp2995
g74
g75
ssg63
g2989
sg56
(lp2996
g389
asbag49
(g70
g51
NtRp2997
(dp2998
g54
(dp2999
g81
g82
ssg63
g2989
sg56
(lp3000
S':'
asbag49
(g70
g51
NtRp3001
(dp3002
g54
(dp3003
sg63
g2989
sg56
(lp3004
g49
(g50
g51
NtRp3005
(dp3006
g54
(dp3007
g62
I3
ssg63
g3001
sg56
(lp3008
S''
asbasbasbasbasbasbasbasbasbasbasbag49
(g65
g51
NtRp3009
(dp3010
g54
(dp3011
sg63
g2795
sg56
(lp3012
g49
(g70
g51
NtRp3013
(dp3014
g54
(dp3015
g74
g75
ssg63
g3009
sg56
(lp3016
S'delimiters'
p3017
asbag49
(g70
g51
NtRp3018
(dp3019
g54
(dp3020
g81
g82
ssg63
g3009
sg56
(lp3021
S':'
asbag49
(g70
g51
NtRp3022
(dp3023
g54
(dp3024
sg63
g3009
sg56
(lp3025
g49
(g50
g51
NtRp3026
(dp3027
g54
(dp3028
g62
I5
ssg63
g3022
sg56
(lp3029
g49
(g58
g51
NtRp3030
(dp3031
g54
(dp3032
g62
I4
ssg63
Nsg56
(lp3033
g49
(g65
g51
NtRp3034
(dp3035
g54
(dp3036
sg63
g3030
sg56
(lp3037
g49
(g70
g51
NtRp3038
(dp3039
g54
(dp3040
sg63
g3034
sg56
(lp3041
g49
(g50
g51
NtRp3042
(dp3043
g54
(dp3044
g62
I4
ssg63
g3038
sg56
(lp3045
S'{{'
p3046
asbasbasbag49
(g65
g51
NtRp3047
(dp3048
g54
(dp3049
sg63
g3030
sg56
(lp3050
g49
(g70
g51
NtRp3051
(dp3052
g54
(dp3053
sg63
g3047
sg56
(lp3054
g49
(g50
g51
NtRp3055
(dp3056
g54
(dp3057
g62
I4
ssg63
g3051
sg56
(lp3058
S'}}'
p3059
asbasbasbasbasbasbasbag49
(g65
g51
NtRp3060
(dp3061
g54
(dp3062
sg63
g2795
sg56
(lp3063
g49
(g70
g51
NtRp3064
(dp3065
g54
(dp3066
g74
g75
ssg63
g3060
sg56
(lp3067
S'files'
p3068
asbag49
(g70
g51
NtRp3069
(dp3070
g54
(dp3071
g81
g82
ssg63
g3060
sg56
(lp3072
S':'
asbag49
(g70
g51
NtRp3073
(dp3074
g54
(dp3075
sg63
g3060
sg56
(lp3076
g49
(g50
g51
NtRp3077
(dp3078
g54
(dp3079
g62
I5
ssg63
g3073
sg56
(lp3080
g49
(g58
g51
NtRp3081
(dp3082
g54
(dp3083
g62
I4
ssg63
Nsg56
(lp3084
sbasbasbasbag49
(g65
g51
NtRp3085
(dp3086
g54
(dp3087
sg63
g2795
sg56
(lp3088
g49
(g70
g51
NtRp3089
(dp3090
g54
(dp3091
g74
g75
ssg63
g3085
sg56
(lp3092
S'flash'
p3093
asbag49
(g70
g51
NtRp3094
(dp3095
g54
(dp3096
g81
g82
ssg63
g3085
sg56
(lp3097
S':'
asbag49
(g70
g51
NtRp3098
(dp3099
g54
(dp3100
sg63
g3085
sg56
(lp3101
g49
(g50
g51
NtRp3102
(dp3103
g54
(dp3104
g62
I5
ssg63
g3098
sg56
(lp3105
S''
asbasbasbag49
(g65
g51
NtRp3106
(dp3107
g54
(dp3108
sg63
g2795
sg56
(lp3109
g49
(g70
g51
NtRp3110
(dp3111
g54
(dp3112
g74
g75
ssg63
g3106
sg56
(lp3113
S'generic_patterns'
p3114
asbag49
(g70
g51
NtRp3115
(dp3116
g54
(dp3117
g81
g82
ssg63
g3106
sg56
(lp3118
S':'
asbag49
(g70
g51
NtRp3119
(dp3120
g54
(dp3121
sg63
g3106
sg56
(lp3122
g49
(g50
g51
NtRp3123
(dp3124
g54
(dp3125
g62
I5
ssg63
g3119
sg56
(lp3126
g49
(g58
g51
NtRp3127
(dp3128
g54
(dp3129
g62
I4
ssg63
Nsg56
(lp3130
sbasbasbasbag49
(g65
g51
NtRp3131
(dp3132
g54
(dp3133
sg63
g2795
sg56
(lp3134
g49
(g70
g51
NtRp3135
(dp3136
g54
(dp3137
g74
g75
ssg63
g3131
sg56
(lp3138
S'headers'
p3139
asbag49
(g70
g51
NtRp3140
(dp3141
g54
(dp3142
g81
g82
ssg63
g3131
sg56
(lp3143
S':'
asbag49
(g70
g51
NtRp3144
(dp3145
g54
(dp3146
sg63
g3131
sg56
(lp3147
g49
(g50
g51
NtRp3148
(dp3149
g54
(dp3150
g62
I5
ssg63
g3144
sg56
(lp3151
g49
(g58
g51
NtRp3152
(dp3153
g54
(dp3154
g62
I4
ssg63
Nsg56
(lp3155
g49
(g65
g51
NtRp3156
(dp3157
g54
(dp3158
sg63
g3152
sg56
(lp3159
g49
(g70
g51
NtRp3160
(dp3161
g54
(dp3162
g74
g75
ssg63
g3156
sg56
(lp3163
S'Cache-Control'
p3164
asbag49
(g70
g51
NtRp3165
(dp3166
g54
(dp3167
g81
g82
ssg63
g3156
sg56
(lp3168
S':'
asbag49
(g70
g51
NtRp3169
(dp3170
g54
(dp3171
sg63
g3156
sg56
(lp3172
g49
(g50
g51
NtRp3173
(dp3174
g54
(dp3175
g62
I4
ssg63
g3169
sg56
(lp3176
S'no-store, no-cache, must-revalidate, post-check=0, pre-check=0'
p3177
asbasbasbag49
(g65
g51
NtRp3178
(dp3179
g54
(dp3180
sg63
g3152
sg56
(lp3181
g49
(g70
g51
NtRp3182
(dp3183
g54
(dp3184
g74
g75
ssg63
g3178
sg56
(lp3185
S'Content-Type'
p3186
asbag49
(g70
g51
NtRp3187
(dp3188
g54
(dp3189
g81
g82
ssg63
g3178
sg56
(lp3190
S':'
asbag49
(g70
g51
NtRp3191
(dp3192
g54
(dp3193
sg63
g3178
sg56
(lp3194
g49
(g50
g51
NtRp3195
(dp3196
g54
(dp3197
g62
I4
ssg63
g3191
sg56
(lp3198
S'text/html; charset=utf-8'
p3199
asbasbasbag49
(g65
g51
NtRp3200
(dp3201
g54
(dp3202
sg63
g3152
sg56
(lp3203
g49
(g70
g51
NtRp3204
(dp3205
g54
(dp3206
g74
g75
ssg63
g3200
sg56
(lp3207
S'Expires'
p3208
asbag49
(g70
g51
NtRp3209
(dp3210
g54
(dp3211
g81
g82
ssg63
g3200
sg56
(lp3212
S':'
asbag49
(g70
g51
NtRp3213
(dp3214
g54
(dp3215
sg63
g3200
sg56
(lp3216
g49
(g50
g51
NtRp3217
(dp3218
g54
(dp3219
g62
I4
ssg63
g3213
sg56
(lp3220
S'Wed, 13 Jun 2012 17:29:26 GMT'
p3221
asbasbasbag49
(g65
g51
NtRp3222
(dp3223
g54
(dp3224
sg63
g3152
sg56
(lp3225
g49
(g70
g51
NtRp3226
(dp3227
g54
(dp3228
g74
g75
ssg63
g3222
sg56
(lp3229
S'Pragma'
p3230
asbag49
(g70
g51
NtRp3231
(dp3232
g54
(dp3233
g81
g82
ssg63
g3222
sg56
(lp3234
S':'
asbag49
(g70
g51
NtRp3235
(dp3236
g54
(dp3237
sg63
g3222
sg56
(lp3238
g49
(g50
g51
NtRp3239
(dp3240
g54
(dp3241
g62
I4
ssg63
g3235
sg56
(lp3242
S'no-cache'
p3243
asbasbasbag49
(g65
g51
NtRp3244
(dp3245
g54
(dp3246
sg63
g3152
sg56
(lp3247
g49
(g70
g51
NtRp3248
(dp3249
g54
(dp3250
g74
g75
ssg63
g3244
sg56
(lp3251
S'X-Powered-By'
p3252
asbag49
(g70
g51
NtRp3253
(dp3254
g54
(dp3255
g81
g82
ssg63
g3244
sg56
(lp3256
S':'
asbag49
(g70
g51
NtRp3257
(dp3258
g54
(dp3259
sg63
g3244
sg56
(lp3260
g49
(g50
g51
NtRp3261
(dp3262
g54
(dp3263
g62
I4
ssg63
g3257
sg56
(lp3264
S'web2py'
p3265
asbasbasbasbasbasbasbag49
(g65
g51
NtRp3266
(dp3267
g54
(dp3268
sg63
g2795
sg56
(lp3269
g49
(g70
g51
NtRp3270
(dp3271
g54
(dp3272
g74
g75
ssg63
g3266
sg56
(lp3273
S'menu'
p3274
asbag49
(g70
g51
NtRp3275
(dp3276
g54
(dp3277
g81
g82
ssg63
g3266
sg56
(lp3278
S':'
asbag49
(g70
g51
NtRp3279
(dp3280
g54
(dp3281
sg63
g3266
sg56
(lp3282
g49
(g50
g51
NtRp3283
(dp3284
g54
(dp3285
g62
I5
ssg63
g3279
sg56
(lp3286
g49
(g58
g51
NtRp3287
(dp3288
g54
(dp3289
g62
I4
ssg63
Nsg56
(lp3290
sbasbasbasbag49
(g65
g51
NtRp3291
(dp3292
g54
(dp3293
sg63
g2795
sg56
(lp3294
g49
(g70
g51
NtRp3295
(dp3296
g54
(dp3297
g74
g75
ssg63
g3291
sg56
(lp3298
S'meta'
p3299
asbag49
(g70
g51
NtRp3300
(dp3301
g54
(dp3302
g81
g82
ssg63
g3291
sg56
(lp3303
S':'
asbag49
(g70
g51
NtRp3304
(dp3305
g54
(dp3306
sg63
g3291
sg56
(lp3307
g49
(g50
g51
NtRp3308
(dp3309
g54
(dp3310
g62
I5
ssg63
g3304
sg56
(lp3311
g49
(g58
g51
NtRp3312
(dp3313
g54
(dp3314
g62
I4
ssg63
Nsg56
(lp3315
sbasbasbasbag49
(g65
g51
NtRp3316
(dp3317
g54
(dp3318
sg63
g2795
sg56
(lp3319
g49
(g70
g51
NtRp3320
(dp3321
g54
(dp3322
g74
g75
ssg63
g3316
sg56
(lp3323
S'postprocessing'
p3324
asbag49
(g70
g51
NtRp3325
(dp3326
g54
(dp3327
g81
g82
ssg63
g3316
sg56
(lp3328
S':'
asbag49
(g70
g51
NtRp3329
(dp3330
g54
(dp3331
sg63
g3316
sg56
(lp3332
g49
(g50
g51
NtRp3333
(dp3334
g54
(dp3335
g62
I5
ssg63
g3329
sg56
(lp3336
g49
(g58
g51
NtRp3337
(dp3338
g54
(dp3339
g62
I4
ssg63
Nsg56
(lp3340
sbasbasbasbag49
(g65
g51
NtRp3341
(dp3342
g54
(dp3343
sg63
g2795
sg56
(lp3344
g49
(g70
g51
NtRp3345
(dp3346
g54
(dp3347
g74
g75
ssg63
g3341
sg56
(lp3348
S'session_filename'
p3349
asbag49
(g70
g51
NtRp3350
(dp3351
g54
(dp3352
g81
g82
ssg63
g3341
sg56
(lp3353
S':'
asbag49
(g70
g51
NtRp3354
(dp3355
g54
(dp3356
sg63
g3341
sg56
(lp3357
g49
(g50
g51
NtRp3358
(dp3359
g54
(dp3360
g62
I5
ssg63
g3354
sg56
(lp3361
S'C:\\Documents and Settings\\Guest\\Desktop\\web2py_win\\web2py\\applications\\Phylografter\\sessions\\127.0.0.1-1e83a7b0-fbd3-4705-b492-d15a3cd8d070'
p3362
asbasbasbag49
(g65
g51
NtRp3363
(dp3364
g54
(dp3365
sg63
g2795
sg56
(lp3366
g49
(g70
g51
NtRp3367
(dp3368
g54
(dp3369
g74
g75
ssg63
g3363
sg56
(lp3370
S'session_id'
p3371
asbag49
(g70
g51
NtRp3372
(dp3373
g54
(dp3374
g81
g82
ssg63
g3363
sg56
(lp3375
S':'
asbag49
(g70
g51
NtRp3376
(dp3377
g54
(dp3378
sg63
g3363
sg56
(lp3379
g49
(g50
g51
NtRp3380
(dp3381
g54
(dp3382
g62
I5
ssg63
g3376
sg56
(lp3383
S'127.0.0.1-1e83a7b0-fbd3-4705-b492-d15a3cd8d070'
p3384
asbasbasbag49
(g65
g51
NtRp3385
(dp3386
g54
(dp3387
sg63
g2795
sg56
(lp3388
g49
(g70
g51
NtRp3389
(dp3390
g54
(dp3391
g74
g75
ssg63
g3385
sg56
(lp3392
S'session_id_name'
p3393
asbag49
(g70
g51
NtRp3394
(dp3395
g54
(dp3396
g81
g82
ssg63
g3385
sg56
(lp3397
S':'
asbag49
(g70
g51
NtRp3398
(dp3399
g54
(dp3400
sg63
g3385
sg56
(lp3401
g49
(g50
g51
NtRp3402
(dp3403
g54
(dp3404
g62
I5
ssg63
g3398
sg56
(lp3405
g2852
asbasbasbag49
(g65
g51
NtRp3406
(dp3407
g54
(dp3408
sg63
g2795
sg56
(lp3409
g49
(g70
g51
NtRp3410
(dp3411
g54
(dp3412
g74
g75
ssg63
g3406
sg56
(lp3413
S'session_new'
p3414
asbag49
(g70
g51
NtRp3415
(dp3416
g54
(dp3417
g81
g82
ssg63
g3406
sg56
(lp3418
S':'
asbag49
(g70
g51
NtRp3419
(dp3420
g54
(dp3421
sg63
g3406
sg56
(lp3422
g49
(g50
g51
NtRp3423
(dp3424
g54
(dp3425
g62
I5
ssg63
g3419
sg56
(lp3426
g1422
asbasbasbag49
(g65
g51
NtRp3427
(dp3428
g54
(dp3429
sg63
g2795
sg56
(lp3430
g49
(g70
g51
NtRp3431
(dp3432
g54
(dp3433
g74
g75
ssg63
g3427
sg56
(lp3434
S'status'
p3435
asbag49
(g70
g51
NtRp3436
(dp3437
g54
(dp3438
g81
g82
ssg63
g3427
sg56
(lp3439
S':'
asbag49
(g70
g51
NtRp3440
(dp3441
g54
(dp3442
sg63
g3427
sg56
(lp3443
g49
(g50
g51
NtRp3444
(dp3445
g54
(dp3446
g62
I5
ssg63
g3440
sg56
(lp3447
S'200'
p3448
asbasbasbag49
(g65
g51
NtRp3449
(dp3450
g54
(dp3451
sg63
g2795
sg56
(lp3452
g49
(g70
g51
NtRp3453
(dp3454
g54
(dp3455
g74
g75
ssg63
g3449
sg56
(lp3456
g2086
asbag49
(g70
g51
NtRp3457
(dp3458
g54
(dp3459
g81
g82
ssg63
g3449
sg56
(lp3460
S':'
asbag49
(g70
g51
NtRp3461
(dp3462
g54
(dp3463
sg63
g3449
sg56
(lp3464
g49
(g50
g51
NtRp3465
(dp3466
g54
(dp3467
g62
I5
ssg63
g3461
sg56
(lp3468
g2099
asbasbasbag49
(g65
g51
NtRp3469
(dp3470
g54
(dp3471
sg63
g2795
sg56
(lp3472
g49
(g70
g51
NtRp3473
(dp3474
g54
(dp3475
g74
g75
ssg63
g3469
sg56
(lp3476
S'view'
p3477
asbag49
(g70
g51
NtRp3478
(dp3479
g54
(dp3480
g81
g82
ssg63
g3469
sg56
(lp3481
S':'
asbag49
(g70
g51
NtRp3482
(dp3483
g54
(dp3484
sg63
g3469
sg56
(lp3485
g49
(g50
g51
NtRp3486
(dp3487
g54
(dp3488
g62
I5
ssg63
g3482
sg56
(lp3489
S'default/index.html'
p3490
asbasbasbasbasbsS'locals'
p3491
(dp3492
S'fromlist'
p3493
S'[]'
p3494
sS'name'
p3495
S"'applications.Phylografter.modules.clienttools'"
p3496
sg62
S'-1'
p3497
sS'self'
p3498
S'<gluon.custom_import._Web2pyImporter object at 0x0180D2B0>'
p3499
sS'globals'
p3500
g39
sg3491
g39
sssS'traceback'
p3501
S'Traceback (most recent call last):\n  File "gluon/restricted.py", line 205, in restricted\n  File "C:\\Documents and Settings\\Guest\\Desktop\\web2py_win\\web2py\\applications\\Phylografter\\models\\db.py", line 77, in <module>\n  File "gluon/compileapp.py", line 405, in <lambda>\n  File "gluon/compileapp.py", line 324, in local_import_aux\n  File "gluon/custom_import.py", line 293, in __call__\n  File "gluon/custom_import.py", line 78, in __call__\nImportError: No module named Phylografter.modules.clienttools\n'
p3502
s.