(dp1
S'output'
p2
S"<type 'exceptions.ImportError'> No module named Phylografter.modules.clienttools"
p3
sS'layer'
p4
S'C:\\Documents and Settings\\Guest\\Desktop\\web2py_win\\web2py\\applications\\Phylografter\\models\\db.py'
p5
sS'code'
p6
S'import datetime, socket, os, sys\nfrom ConfigParser import SafeConfigParser\n\ndefaults = dict(host="localhost", user="guest", password="guest", dbname="phylografter")\n\nconf = SafeConfigParser(defaults)\n\nuser = password = dbname = host = \'\'\n\n#db = DAL("sqlite://phylografter.db")\n#db = DAL("mysql://%s:%s@%s/%s" % (user, password, host, dbname), migrate=False ) \n\nif os.path.isfile("applications/%s/private/localconfig" % request.application):\n    conf.read("applications/%s/private/localconfig" % request.application)\n    host = conf.get("db", "host")\n    user = conf.get("db", "user")\n    password = conf.get("db", "password")\n    dbname = conf.get("db", "dbname")\n\nelse:\n    conf.read("applications/%s/private/config" % request.application)\n    host = conf.get("db", "host")\n    user = conf.get("db", "user")\n    password = conf.get("db", "password")\n    dbname = conf.get("db", "dbname")\n\ndb = DAL("mysql://%s:%s@%s/%s" % (user, password, host, dbname), migrate=False ) \n#db = DAL("mysql://%s:%s@%s/%s" % (user, password, host, dbname), migrate=False, fake_migrate_all=True, migrate_enabled=False ) \n\n\nfrom gluon.tools import *\n## mail = Mail()                    # mailer\nauth = Auth(globals(),db)           # authentication/authorization\ncrud = Crud(globals(),db)           # for CRUD helpers using auth\nservice = Service(globals())        # for json, xml, jsonrpc, xmlrpc, amfrpc\nplugins = PluginManager()\n\n## mail.settings.server = \'logging\' or \'smtp.gmail.com:587\'  # your SMTP server\n## mail.settings.sender = \'you@gmail.com\'         # your email\n## mail.settings.login = \'username:password\'      # your credentials or None\n## auth.settings.hmac_key = \'<your secret key>\'   # before define_tables()\nauth.define_tables( migrate=False )                           # creates all needed tables\n## auth.settings.mailer = mail                 # for user email verification\nauth.settings.registration_requires_verification = False\nauth.settings.registration_requires_approval = False\nauth.messages.verify_email = \'Click on the link http://\'+request.env.http_host+URL(r=request,c=\'default\',f=\'user\',args=[\'verify_email\'])+\'/%(key)s to verify your email\'\nauth.settings.reset_password_requires_verification = True\nauth.messages.reset_password = \'Click on the link http://\'+request.env.http_host+URL(r=request,c=\'default\',f=\'user\',args=[\'reset_password\'])+\'/%(key)s to reset your password\'\n\n#########################################################################\n## If you need to use OpenID, Facebook, MySpace, Twitter, Linkedin, etc.\n## register with janrain.com, uncomment and customize following\nhost = socket.gethostname()\nif host == "rickroll":\n    host = "www.reelab.net"\nelse:\n    host = "localhost:8000"\nfrom gluon.contrib.login_methods.rpx_account import RPXAccount\nauth.settings.actions_disabled=[\'register\',\'change_password\',\'request_reset_password\']\nauth.settings.login_form = RPXAccount(\n    request, api_key=\'9435bcb6253fa24c4680cbbd0d4e75a0accde8b3\',\n    domain=\'phylografter\',\n    url = "http://%s/%s/default/user/login" % (host, request.application)\n    )\n\nif request.controller==\'default\' and request.function==\'user\' and request.args(0)==\'login\':\n    auth.settings.login_next = session._next or URL(\'index\')\nelse:\n    session._next = request.env.path_info\n\n## other login methods are in gluon/contrib/login_methods\n#########################################################################\n\ncrud.settings.auth = None                      # =auth to enforce authorization on crud\n\n# from http://www.web2pyslices.com/main/slices/take_slice/8\nclienttools = local_import(\'clienttools\')\npage = clienttools.PageManager(globals())\nevent = clienttools.EventManager(page)\njs = clienttools.ScriptManager(page) # javascript helpers\njq = clienttools.JQuery # don\'t instantiate, just to shorten\n\ndefine_tables(db)\n\ndef delete_stree(i, otu=False):\n    rec = db.stree(i)\n    assert rec\n    snodes = db(db.snode.tree==i)\n    if otu:\n        q = ((db.snode.tree==db.stree.id)&\n             (db.snode.otu==db.otu.id)&\n             (db.stree.id==i))\n        otus = [ x.id for x in db(q).select(db.otu.id) ]\n        db(db.otu.id.belongs(otus)).delete()\n    snodes.delete()\n    rec.delete_record()\n\ndef upload_fasta(study, fname):\n    from Bio import SeqIO\n    study = db.study(int(study))\n    assert study\n    recs = SeqIO.parse(fname, "fasta")\n    \ndef insert_ncbi_node(taxid, email):\n    from ivy import genbank\n    genbank.email = email\n    d = genbank.fetchtax(taxid)\n    assert d\n    parent_taxid = int(d["LineageEx"][-1]["TaxId"])\n    t = db.ncbi_node\n    p = db(t.taxid==parent_taxid).select().first()\n    assert p\n    # make room for new node\n    b = p.back\n    db(t.back>=p.back).update(next=t.next+2, back=t.back+2)\n    name = d[\'ScientificName\']; rank = d[\'Rank\']\n    i = t.insert(taxid=taxid, name=name, rank=rank,\n                 next=b, back=b+1, parent=p.id)\n    print "Inserted %s into ncbi_node: %s" % (name, i)\n    #insert taxon record\n    q = (db.taxon.name==name)&(db.taxon.ncbi_taxid==taxid)\n    if not db(q).select().first():\n        i = db.taxon.insert(name=name, rank=rank, ncbi_taxid=taxid)\n        print "Inserted %s into taxon: %s" % (name, i)\n    if d[\'OtherNames\'] and d[\'OtherNames\'][\'GenbankSynonym\']:\n        for syn in d[\'OtherNames\'][\'GenbankSynonym\']:\n            q = (db.taxon.name==syn)&(db.taxon.ncbi_taxid==taxid)\n            if not db(q).select().first():\n                i = db.taxon.insert(name=syn, rank=rank, ncbi_taxid=taxid)\n                print "Inserted %s into taxon: %s" % (syn, i)\n    \n        \n'
p7
sS'snapshot'
p8
(dp9
S'exception'
p10
(dp11
S'__hash__'
p12
S"<method-wrapper '__hash__' of exceptions.ImportError object at 0x039ED738>"
p13
sS'__setattr__'
p14
S"<method-wrapper '__setattr__' of exceptions.ImportError object at 0x039ED738>"
p15
sS'__reduce_ex__'
p16
S'<built-in method __reduce_ex__ of exceptions.ImportError object at 0x039ED738>'
p17
sS'__getslice__'
p18
S"<method-wrapper '__getslice__' of exceptions.ImportError object at 0x039ED738>"
p19
sS'__getitem__'
p20
S"<method-wrapper '__getitem__' of exceptions.ImportError object at 0x039ED738>"
p21
sS'__setstate__'
p22
S'<built-in method __setstate__ of exceptions.ImportError object at 0x039ED738>'
p23
sS'__reduce__'
p24
S'<built-in method __reduce__ of exceptions.ImportError object at 0x039ED738>'
p25
sS'__str__'
p26
S"<method-wrapper '__str__' of exceptions.ImportError object at 0x039ED738>"
p27
sS'args'
p28
S"('No module named Phylografter.modules.clienttools',)"
p29
sS'__getattribute__'
p30
S"<method-wrapper '__getattribute__' of exceptions.ImportError object at 0x039ED738>"
p31
sS'__class__'
p32
S"<type 'exceptions.ImportError'>"
p33
sS'__delattr__'
p34
S"<method-wrapper '__delattr__' of exceptions.ImportError object at 0x039ED738>"
p35
sS'__repr__'
p36
S"<method-wrapper '__repr__' of exceptions.ImportError object at 0x039ED738>"
p37
sS'__dict__'
p38
S'{}'
p39
sS'__doc__'
p40
S'"Import can\'t find module, or can\'t find name in module."'
p41
sS'__init__'
p42
S"<method-wrapper '__init__' of exceptions.ImportError object at 0x039ED738>"
p43
sS'__new__'
p44
S'<built-in method __new__ of type object at 0x1E1CD198>'
p45
ssS'evalue'
p46
S'No module named Phylografter.modules.clienttools'
p47
sS'request'
p48
ccopy_reg
_reconstructor
p49
(cgluon.html
BEAUTIFY
p50
c__builtin__
object
p51
NtRp52
(dp53
S'attributes'
p54
(dp55
sS'components'
p56
(lp57
g49
(cgluon.html
TABLE
p58
g51
NtRp59
(dp60
g54
(dp61
S'level'
p62
I5
ssS'parent'
p63
Nsg56
(lp64
g49
(cgluon.html
TR
p65
g51
NtRp66
(dp67
g54
(dp68
sg63
g59
sg56
(lp69
g49
(cgluon.html
TD
p70
g51
NtRp71
(dp72
g54
(dp73
S'_style'
p74
S'font-weight:bold;vertical-align:top'
p75
ssg63
g66
sg56
(lp76
S'ajax'
p77
asbag49
(g70
g51
NtRp78
(dp79
g54
(dp80
S'_valign'
p81
S'top'
p82
ssg63
g66
sg56
(lp83
S':'
asbag49
(g70
g51
NtRp84
(dp85
g54
(dp86
sg63
g66
sg56
(lp87
g49
(g50
g51
NtRp88
(dp89
g54
(dp90
g62
I5
ssg63
g84
sg56
(lp91
S'False'
p92
asbasbasbag49
(g65
g51
NtRp93
(dp94
g54
(dp95
sg63
g59
sg56
(lp96
g49
(g70
g51
NtRp97
(dp98
g54
(dp99
g74
g75
ssg63
g93
sg56
(lp100
S'application'
p101
asbag49
(g70
g51
NtRp102
(dp103
g54
(dp104
g81
g82
ssg63
g93
sg56
(lp105
S':'
asbag49
(g70
g51
NtRp106
(dp107
g54
(dp108
sg63
g93
sg56
(lp109
g49
(g50
g51
NtRp110
(dp111
g54
(dp112
g62
I5
ssg63
g106
sg56
(lp113
S'Phylografter'
p114
asbasbasbag49
(g65
g51
NtRp115
(dp116
g54
(dp117
sg63
g59
sg56
(lp118
g49
(g70
g51
NtRp119
(dp120
g54
(dp121
g74
g75
ssg63
g115
sg56
(lp122
g28
asbag49
(g70
g51
NtRp123
(dp124
g54
(dp125
g81
g82
ssg63
g115
sg56
(lp126
S':'
asbag49
(g70
g51
NtRp127
(dp128
g54
(dp129
sg63
g115
sg56
(lp130
g49
(g50
g51
NtRp131
(dp132
g54
(dp133
g62
I5
ssg63
g127
sg56
(lp134
g49
(g58
g51
NtRp135
(dp136
g54
(dp137
g62
I4
ssg63
Nsg56
(lp138
sbasbasbasbag49
(g65
g51
NtRp139
(dp140
g54
(dp141
sg63
g59
sg56
(lp142
g49
(g70
g51
NtRp143
(dp144
g54
(dp145
g74
g75
ssg63
g139
sg56
(lp146
S'body'
p147
asbag49
(g70
g51
NtRp148
(dp149
g54
(dp150
g81
g82
ssg63
g139
sg56
(lp151
S':'
asbag49
(g70
g51
NtRp152
(dp153
g54
(dp154
sg63
g139
sg56
(lp155
g49
(g50
g51
NtRp156
(dp157
g54
(dp158
g62
I5
ssg63
g152
sg56
(lp159
S'<cStringIO.StringO object at 0x038CDAC0>'
p160
asbasbasbag49
(g65
g51
NtRp161
(dp162
g54
(dp163
sg63
g59
sg56
(lp164
g49
(g70
g51
NtRp165
(dp166
g54
(dp167
g74
g75
ssg63
g161
sg56
(lp168
S'client'
p169
asbag49
(g70
g51
NtRp170
(dp171
g54
(dp172
g81
g82
ssg63
g161
sg56
(lp173
S':'
asbag49
(g70
g51
NtRp174
(dp175
g54
(dp176
sg63
g161
sg56
(lp177
g49
(g50
g51
NtRp178
(dp179
g54
(dp180
g62
I5
ssg63
g174
sg56
(lp181
S'127.0.0.1'
p182
asbasbasbag49
(g65
g51
NtRp183
(dp184
g54
(dp185
sg63
g59
sg56
(lp186
g49
(g70
g51
NtRp187
(dp188
g54
(dp189
g74
g75
ssg63
g183
sg56
(lp190
S'controller'
p191
asbag49
(g70
g51
NtRp192
(dp193
g54
(dp194
g81
g82
ssg63
g183
sg56
(lp195
S':'
asbag49
(g70
g51
NtRp196
(dp197
g54
(dp198
sg63
g183
sg56
(lp199
g49
(g50
g51
NtRp200
(dp201
g54
(dp202
g62
I5
ssg63
g196
sg56
(lp203
S'default'
p204
asbasbasbag49
(g65
g51
NtRp205
(dp206
g54
(dp207
sg63
g59
sg56
(lp208
g49
(g70
g51
NtRp209
(dp210
g54
(dp211
g74
g75
ssg63
g205
sg56
(lp212
S'cookies'
p213
asbag49
(g70
g51
NtRp214
(dp215
g54
(dp216
g81
g82
ssg63
g205
sg56
(lp217
S':'
asbag49
(g70
g51
NtRp218
(dp219
g54
(dp220
sg63
g205
sg56
(lp221
g49
(g50
g51
NtRp222
(dp223
g54
(dp224
g62
I5
ssg63
g218
sg56
(lp225
g49
(g58
g51
NtRp226
(dp227
g54
(dp228
g62
I4
ssg63
Nsg56
(lp229
g49
(g65
g51
NtRp230
(dp231
g54
(dp232
sg63
g226
sg56
(lp233
g49
(g70
g51
NtRp234
(dp235
g54
(dp236
g74
g75
ssg63
g230
sg56
(lp237
S'session_id_admin'
p238
asbag49
(g70
g51
NtRp239
(dp240
g54
(dp241
g81
g82
ssg63
g230
sg56
(lp242
S':'
asbag49
(g70
g51
NtRp243
(dp244
g54
(dp245
sg63
g230
sg56
(lp246
g49
(g50
g51
NtRp247
(dp248
g54
(dp249
g62
I4
ssg63
g243
sg56
(lp250
g49
(g58
g51
NtRp251
(dp252
g54
(dp253
g62
I3
ssg63
Nsg56
(lp254
g49
(g65
g51
NtRp255
(dp256
g54
(dp257
sg63
g251
sg56
(lp258
g49
(g70
g51
NtRp259
(dp260
g54
(dp261
g74
g75
ssg63
g255
sg56
(lp262
S'comment'
p263
asbag49
(g70
g51
NtRp264
(dp265
g54
(dp266
g81
g82
ssg63
g255
sg56
(lp267
S':'
asbag49
(g70
g51
NtRp268
(dp269
g54
(dp270
sg63
g255
sg56
(lp271
g49
(g50
g51
NtRp272
(dp273
g54
(dp274
g62
I3
ssg63
g268
sg56
(lp275
S''
asbasbasbag49
(g65
g51
NtRp276
(dp277
g54
(dp278
sg63
g251
sg56
(lp279
g49
(g70
g51
NtRp280
(dp281
g54
(dp282
g74
g75
ssg63
g276
sg56
(lp283
S'domain'
p284
asbag49
(g70
g51
NtRp285
(dp286
g54
(dp287
g81
g82
ssg63
g276
sg56
(lp288
S':'
asbag49
(g70
g51
NtRp289
(dp290
g54
(dp291
sg63
g276
sg56
(lp292
g49
(g50
g51
NtRp293
(dp294
g54
(dp295
g62
I3
ssg63
g289
sg56
(lp296
S''
asbasbasbag49
(g65
g51
NtRp297
(dp298
g54
(dp299
sg63
g251
sg56
(lp300
g49
(g70
g51
NtRp301
(dp302
g54
(dp303
g74
g75
ssg63
g297
sg56
(lp304
S'expires'
p305
asbag49
(g70
g51
NtRp306
(dp307
g54
(dp308
g81
g82
ssg63
g297
sg56
(lp309
S':'
asbag49
(g70
g51
NtRp310
(dp311
g54
(dp312
sg63
g297
sg56
(lp313
g49
(g50
g51
NtRp314
(dp315
g54
(dp316
g62
I3
ssg63
g310
sg56
(lp317
S''
asbasbasbag49
(g65
g51
NtRp318
(dp319
g54
(dp320
sg63
g251
sg56
(lp321
g49
(g70
g51
NtRp322
(dp323
g54
(dp324
g74
g75
ssg63
g318
sg56
(lp325
S'max-age'
p326
asbag49
(g70
g51
NtRp327
(dp328
g54
(dp329
g81
g82
ssg63
g318
sg56
(lp330
S':'
asbag49
(g70
g51
NtRp331
(dp332
g54
(dp333
sg63
g318
sg56
(lp334
g49
(g50
g51
NtRp335
(dp336
g54
(dp337
g62
I3
ssg63
g331
sg56
(lp338
S''
asbasbasbag49
(g65
g51
NtRp339
(dp340
g54
(dp341
sg63
g251
sg56
(lp342
g49
(g70
g51
NtRp343
(dp344
g54
(dp345
g74
g75
ssg63
g339
sg56
(lp346
S'path'
p347
asbag49
(g70
g51
NtRp348
(dp349
g54
(dp350
g81
g82
ssg63
g339
sg56
(lp351
S':'
asbag49
(g70
g51
NtRp352
(dp353
g54
(dp354
sg63
g339
sg56
(lp355
g49
(g50
g51
NtRp356
(dp357
g54
(dp358
g62
I3
ssg63
g352
sg56
(lp359
S''
asbasbasbag49
(g65
g51
NtRp360
(dp361
g54
(dp362
sg63
g251
sg56
(lp363
g49
(g70
g51
NtRp364
(dp365
g54
(dp366
g74
g75
ssg63
g360
sg56
(lp367
S'secure'
p368
asbag49
(g70
g51
NtRp369
(dp370
g54
(dp371
g81
g82
ssg63
g360
sg56
(lp372
S':'
asbag49
(g70
g51
NtRp373
(dp374
g54
(dp375
sg63
g360
sg56
(lp376
g49
(g50
g51
NtRp377
(dp378
g54
(dp379
g62
I3
ssg63
g373
sg56
(lp380
S''
asbasbasbag49
(g65
g51
NtRp381
(dp382
g54
(dp383
sg63
g251
sg56
(lp384
g49
(g70
g51
NtRp385
(dp386
g54
(dp387
g74
g75
ssg63
g381
sg56
(lp388
S'version'
p389
asbag49
(g70
g51
NtRp390
(dp391
g54
(dp392
g81
g82
ssg63
g381
sg56
(lp393
S':'
asbag49
(g70
g51
NtRp394
(dp395
g54
(dp396
sg63
g381
sg56
(lp397
g49
(g50
g51
NtRp398
(dp399
g54
(dp400
g62
I3
ssg63
g394
sg56
(lp401
S''
asbasbasbasbasbasbasbag49
(g65
g51
NtRp402
(dp403
g54
(dp404
sg63
g226
sg56
(lp405
g49
(g70
g51
NtRp406
(dp407
g54
(dp408
g74
g75
ssg63
g402
sg56
(lp409
S'session_id_welcome'
p410
asbag49
(g70
g51
NtRp411
(dp412
g54
(dp413
g81
g82
ssg63
g402
sg56
(lp414
S':'
asbag49
(g70
g51
NtRp415
(dp416
g54
(dp417
sg63
g402
sg56
(lp418
g49
(g50
g51
NtRp419
(dp420
g54
(dp421
g62
I4
ssg63
g415
sg56
(lp422
g49
(g58
g51
NtRp423
(dp424
g54
(dp425
g62
I3
ssg63
Nsg56
(lp426
g49
(g65
g51
NtRp427
(dp428
g54
(dp429
sg63
g423
sg56
(lp430
g49
(g70
g51
NtRp431
(dp432
g54
(dp433
g74
g75
ssg63
g427
sg56
(lp434
g263
asbag49
(g70
g51
NtRp435
(dp436
g54
(dp437
g81
g82
ssg63
g427
sg56
(lp438
S':'
asbag49
(g70
g51
NtRp439
(dp440
g54
(dp441
sg63
g427
sg56
(lp442
g49
(g50
g51
NtRp443
(dp444
g54
(dp445
g62
I3
ssg63
g439
sg56
(lp446
S''
asbasbasbag49
(g65
g51
NtRp447
(dp448
g54
(dp449
sg63
g423
sg56
(lp450
g49
(g70
g51
NtRp451
(dp452
g54
(dp453
g74
g75
ssg63
g447
sg56
(lp454
g284
asbag49
(g70
g51
NtRp455
(dp456
g54
(dp457
g81
g82
ssg63
g447
sg56
(lp458
S':'
asbag49
(g70
g51
NtRp459
(dp460
g54
(dp461
sg63
g447
sg56
(lp462
g49
(g50
g51
NtRp463
(dp464
g54
(dp465
g62
I3
ssg63
g459
sg56
(lp466
S''
asbasbasbag49
(g65
g51
NtRp467
(dp468
g54
(dp469
sg63
g423
sg56
(lp470
g49
(g70
g51
NtRp471
(dp472
g54
(dp473
g74
g75
ssg63
g467
sg56
(lp474
g305
asbag49
(g70
g51
NtRp475
(dp476
g54
(dp477
g81
g82
ssg63
g467
sg56
(lp478
S':'
asbag49
(g70
g51
NtRp479
(dp480
g54
(dp481
sg63
g467
sg56
(lp482
g49
(g50
g51
NtRp483
(dp484
g54
(dp485
g62
I3
ssg63
g479
sg56
(lp486
S''
asbasbasbag49
(g65
g51
NtRp487
(dp488
g54
(dp489
sg63
g423
sg56
(lp490
g49
(g70
g51
NtRp491
(dp492
g54
(dp493
g74
g75
ssg63
g487
sg56
(lp494
g326
asbag49
(g70
g51
NtRp495
(dp496
g54
(dp497
g81
g82
ssg63
g487
sg56
(lp498
S':'
asbag49
(g70
g51
NtRp499
(dp500
g54
(dp501
sg63
g487
sg56
(lp502
g49
(g50
g51
NtRp503
(dp504
g54
(dp505
g62
I3
ssg63
g499
sg56
(lp506
S''
asbasbasbag49
(g65
g51
NtRp507
(dp508
g54
(dp509
sg63
g423
sg56
(lp510
g49
(g70
g51
NtRp511
(dp512
g54
(dp513
g74
g75
ssg63
g507
sg56
(lp514
g347
asbag49
(g70
g51
NtRp515
(dp516
g54
(dp517
g81
g82
ssg63
g507
sg56
(lp518
S':'
asbag49
(g70
g51
NtRp519
(dp520
g54
(dp521
sg63
g507
sg56
(lp522
g49
(g50
g51
NtRp523
(dp524
g54
(dp525
g62
I3
ssg63
g519
sg56
(lp526
S''
asbasbasbag49
(g65
g51
NtRp527
(dp528
g54
(dp529
sg63
g423
sg56
(lp530
g49
(g70
g51
NtRp531
(dp532
g54
(dp533
g74
g75
ssg63
g527
sg56
(lp534
g368
asbag49
(g70
g51
NtRp535
(dp536
g54
(dp537
g81
g82
ssg63
g527
sg56
(lp538
S':'
asbag49
(g70
g51
NtRp539
(dp540
g54
(dp541
sg63
g527
sg56
(lp542
g49
(g50
g51
NtRp543
(dp544
g54
(dp545
g62
I3
ssg63
g539
sg56
(lp546
S''
asbasbasbag49
(g65
g51
NtRp547
(dp548
g54
(dp549
sg63
g423
sg56
(lp550
g49
(g70
g51
NtRp551
(dp552
g54
(dp553
g74
g75
ssg63
g547
sg56
(lp554
g389
asbag49
(g70
g51
NtRp555
(dp556
g54
(dp557
g81
g82
ssg63
g547
sg56
(lp558
S':'
asbag49
(g70
g51
NtRp559
(dp560
g54
(dp561
sg63
g547
sg56
(lp562
g49
(g50
g51
NtRp563
(dp564
g54
(dp565
g62
I3
ssg63
g559
sg56
(lp566
S''
asbasbasbasbasbasbasbasbasbasbasbag49
(g65
g51
NtRp567
(dp568
g54
(dp569
sg63
g59
sg56
(lp570
g49
(g70
g51
NtRp571
(dp572
g54
(dp573
g74
g75
ssg63
g567
sg56
(lp574
S'env'
p575
asbag49
(g70
g51
NtRp576
(dp577
g54
(dp578
g81
g82
ssg63
g567
sg56
(lp579
S':'
asbag49
(g70
g51
NtRp580
(dp581
g54
(dp582
sg63
g567
sg56
(lp583
g49
(g50
g51
NtRp584
(dp585
g54
(dp586
g62
I5
ssg63
g580
sg56
(lp587
g49
(g58
g51
NtRp588
(dp589
g54
(dp590
g62
I4
ssg63
Nsg56
(lp591
g49
(g65
g51
NtRp592
(dp593
g54
(dp594
sg63
g588
sg56
(lp595
g49
(g70
g51
NtRp596
(dp597
g54
(dp598
g74
g75
ssg63
g592
sg56
(lp599
S'app_folders'
p600
asbag49
(g70
g51
NtRp601
(dp602
g54
(dp603
g81
g82
ssg63
g592
sg56
(lp604
S':'
asbag49
(g70
g51
NtRp605
(dp606
g54
(dp607
sg63
g592
sg56
(lp608
g49
(g50
g51
NtRp609
(dp610
g54
(dp611
g62
I4
ssg63
g605
sg56
(lp612
S"set(['C:\\\\Documents and Settings\\\\Guest\\\\Desktop\\\\web2py_win\\\\web2py\\\\applications\\\\Phylografter\\\\', 'C:\\\\Documents and Settings\\\\Guest\\\\Desktop\\\\web2py_win\\\\web2py\\\\applications\\\\welcome\\\\', 'C:\\\\Documents and Settings\\\\Guest\\\\Desktop\\\\web2py_win\\\\web2py\\\\applications\\\\admin\\\\'])"
p613
asbasbasbag49
(g65
g51
NtRp614
(dp615
g54
(dp616
sg63
g588
sg56
(lp617
g49
(g70
g51
NtRp618
(dp619
g54
(dp620
g74
g75
ssg63
g614
sg56
(lp621
S'applications_parent'
p622
asbag49
(g70
g51
NtRp623
(dp624
g54
(dp625
g81
g82
ssg63
g614
sg56
(lp626
S':'
asbag49
(g70
g51
NtRp627
(dp628
g54
(dp629
sg63
g614
sg56
(lp630
g49
(g50
g51
NtRp631
(dp632
g54
(dp633
g62
I4
ssg63
g627
sg56
(lp634
S'C:\\Documents and Settings\\Guest\\Desktop\\web2py_win\\web2py'
p635
asbasbasbag49
(g65
g51
NtRp636
(dp637
g54
(dp638
sg63
g588
sg56
(lp639
g49
(g70
g51
NtRp640
(dp641
g54
(dp642
g74
g75
ssg63
g636
sg56
(lp643
S'cmd_args'
p644
asbag49
(g70
g51
NtRp645
(dp646
g54
(dp647
g81
g82
ssg63
g636
sg56
(lp648
S':'
asbag49
(g70
g51
NtRp649
(dp650
g54
(dp651
sg63
g636
sg56
(lp652
g49
(g50
g51
NtRp653
(dp654
g54
(dp655
g62
I4
ssg63
g649
sg56
(lp656
g49
(g58
g51
NtRp657
(dp658
g54
(dp659
g62
I3
ssg63
Nsg56
(lp660
sbasbasbasbag49
(g65
g51
NtRp661
(dp662
g54
(dp663
sg63
g588
sg56
(lp664
g49
(g70
g51
NtRp665
(dp666
g54
(dp667
g74
g75
ssg63
g661
sg56
(lp668
S'cmd_options'
p669
asbag49
(g70
g51
NtRp670
(dp671
g54
(dp672
g81
g82
ssg63
g661
sg56
(lp673
S':'
asbag49
(g70
g51
NtRp674
(dp675
g54
(dp676
sg63
g661
sg56
(lp677
g49
(g50
g51
NtRp678
(dp679
g54
(dp680
g62
I4
ssg63
g674
sg56
(lp681
S"<Values at 0x1879878: {'verbose': False, 'ip': '127.0.0.1', 'shutdown_timeout': 5, 'taskbar': False, 'nocron': False, 'pid_filename': 'httpserver.pid', 'maxthreads': None, 'softcron': False, 'server_name': 'fm-biosync-int1', 'bpython': False, 'nogui': False, 'port': 8000, 'extcron': False, 'debuglevel': 30, 'test': None, 'folder': 'C:\\\\Documents and Settings\\\\Guest\\\\Desktop\\\\web2py_win\\\\web2py', 'config': '', 'import_models': False, 'winservice': '', 'shell': None, 'run': '', 'log_filename': 'httpserver.log', 'args': [''], 'socket_timeout': 5, 'ssl_ca_certificate': None, 'scheduler': None, 'profiler_filename': None, 'ssl_private_key': '', 'password': '<ask>', 'request_queue_size': 5, 'ssl_certificate': '', 'cronjob': False, 'numthreads': None, 'quiet': False, 'interfaces': None, 'minthreads': None, 'timeout': 10, 'plain': False, 'nobanner': False}>"
p682
asbasbasbag49
(g65
g51
NtRp683
(dp684
g54
(dp685
sg63
g588
sg56
(lp686
g49
(g70
g51
NtRp687
(dp688
g54
(dp689
g74
g75
ssg63
g683
sg56
(lp690
S'db_sessions'
p691
asbag49
(g70
g51
NtRp692
(dp693
g54
(dp694
g81
g82
ssg63
g683
sg56
(lp695
S':'
asbag49
(g70
g51
NtRp696
(dp697
g54
(dp698
sg63
g683
sg56
(lp699
g49
(g50
g51
NtRp700
(dp701
g54
(dp702
g62
I4
ssg63
g696
sg56
(lp703
S'set([])'
p704
asbasbasbag49
(g65
g51
NtRp705
(dp706
g54
(dp707
sg63
g588
sg56
(lp708
g49
(g70
g51
NtRp709
(dp710
g54
(dp711
g74
g75
ssg63
g705
sg56
(lp712
S'debugging'
p713
asbag49
(g70
g51
NtRp714
(dp715
g54
(dp716
g81
g82
ssg63
g705
sg56
(lp717
S':'
asbag49
(g70
g51
NtRp718
(dp719
g54
(dp720
sg63
g705
sg56
(lp721
g49
(g50
g51
NtRp722
(dp723
g54
(dp724
g62
I4
ssg63
g718
sg56
(lp725
g92
asbasbasbag49
(g65
g51
NtRp726
(dp727
g54
(dp728
sg63
g588
sg56
(lp729
g49
(g70
g51
NtRp730
(dp731
g54
(dp732
g74
g75
ssg63
g726
sg56
(lp733
S'gluon_parent'
p734
asbag49
(g70
g51
NtRp735
(dp736
g54
(dp737
g81
g82
ssg63
g726
sg56
(lp738
S':'
asbag49
(g70
g51
NtRp739
(dp740
g54
(dp741
sg63
g726
sg56
(lp742
g49
(g50
g51
NtRp743
(dp744
g54
(dp745
g62
I4
ssg63
g739
sg56
(lp746
S'C:\\Documents and Settings\\Guest\\Desktop\\web2py_win\\web2py'
p747
asbasbasbag49
(g65
g51
NtRp748
(dp749
g54
(dp750
sg63
g588
sg56
(lp751
g49
(g70
g51
NtRp752
(dp753
g54
(dp754
g74
g75
ssg63
g748
sg56
(lp755
S'http_accept'
p756
asbag49
(g70
g51
NtRp757
(dp758
g54
(dp759
g81
g82
ssg63
g748
sg56
(lp760
S':'
asbag49
(g70
g51
NtRp761
(dp762
g54
(dp763
sg63
g748
sg56
(lp764
g49
(g50
g51
NtRp765
(dp766
g54
(dp767
g62
I4
ssg63
g761
sg56
(lp768
S'text/html,application/xhtml+xml,application/xml;q=0.9,*/*;q=0.8'
p769
asbasbasbag49
(g65
g51
NtRp770
(dp771
g54
(dp772
sg63
g588
sg56
(lp773
g49
(g70
g51
NtRp774
(dp775
g54
(dp776
g74
g75
ssg63
g770
sg56
(lp777
S'http_accept_charset'
p778
asbag49
(g70
g51
NtRp779
(dp780
g54
(dp781
g81
g82
ssg63
g770
sg56
(lp782
S':'
asbag49
(g70
g51
NtRp783
(dp784
g54
(dp785
sg63
g770
sg56
(lp786
g49
(g50
g51
NtRp787
(dp788
g54
(dp789
g62
I4
ssg63
g783
sg56
(lp790
S'ISO-8859-1,utf-8;q=0.7,*;q=0.3'
p791
asbasbasbag49
(g65
g51
NtRp792
(dp793
g54
(dp794
sg63
g588
sg56
(lp795
g49
(g70
g51
NtRp796
(dp797
g54
(dp798
g74
g75
ssg63
g792
sg56
(lp799
S'http_accept_encoding'
p800
asbag49
(g70
g51
NtRp801
(dp802
g54
(dp803
g81
g82
ssg63
g792
sg56
(lp804
S':'
asbag49
(g70
g51
NtRp805
(dp806
g54
(dp807
sg63
g792
sg56
(lp808
g49
(g50
g51
NtRp809
(dp810
g54
(dp811
g62
I4
ssg63
g805
sg56
(lp812
S'gzip,deflate,sdch'
p813
asbasbasbag49
(g65
g51
NtRp814
(dp815
g54
(dp816
sg63
g588
sg56
(lp817
g49
(g70
g51
NtRp818
(dp819
g54
(dp820
g74
g75
ssg63
g814
sg56
(lp821
S'http_accept_language'
p822
asbag49
(g70
g51
NtRp823
(dp824
g54
(dp825
g81
g82
ssg63
g814
sg56
(lp826
S':'
asbag49
(g70
g51
NtRp827
(dp828
g54
(dp829
sg63
g814
sg56
(lp830
g49
(g50
g51
NtRp831
(dp832
g54
(dp833
g62
I4
ssg63
g827
sg56
(lp834
S'en-US,en;q=0.8'
p835
asbasbasbag49
(g65
g51
NtRp836
(dp837
g54
(dp838
sg63
g588
sg56
(lp839
g49
(g70
g51
NtRp840
(dp841
g54
(dp842
g74
g75
ssg63
g836
sg56
(lp843
S'http_cache_control'
p844
asbag49
(g70
g51
NtRp845
(dp846
g54
(dp847
g81
g82
ssg63
g836
sg56
(lp848
S':'
asbag49
(g70
g51
NtRp849
(dp850
g54
(dp851
sg63
g836
sg56
(lp852
g49
(g50
g51
NtRp853
(dp854
g54
(dp855
g62
I4
ssg63
g849
sg56
(lp856
S'max-age=0'
p857
asbasbasbag49
(g65
g51
NtRp858
(dp859
g54
(dp860
sg63
g588
sg56
(lp861
g49
(g70
g51
NtRp862
(dp863
g54
(dp864
g74
g75
ssg63
g858
sg56
(lp865
S'http_connection'
p866
asbag49
(g70
g51
NtRp867
(dp868
g54
(dp869
g81
g82
ssg63
g858
sg56
(lp870
S':'
asbag49
(g70
g51
NtRp871
(dp872
g54
(dp873
sg63
g858
sg56
(lp874
g49
(g50
g51
NtRp875
(dp876
g54
(dp877
g62
I4
ssg63
g871
sg56
(lp878
S'keep-alive'
p879
asbasbasbag49
(g65
g51
NtRp880
(dp881
g54
(dp882
sg63
g588
sg56
(lp883
g49
(g70
g51
NtRp884
(dp885
g54
(dp886
g74
g75
ssg63
g880
sg56
(lp887
S'http_cookie'
p888
asbag49
(g70
g51
NtRp889
(dp890
g54
(dp891
g81
g82
ssg63
g880
sg56
(lp892
S':'
asbag49
(g70
g51
NtRp893
(dp894
g54
(dp895
sg63
g880
sg56
(lp896
g49
(g50
g51
NtRp897
(dp898
g54
(dp899
g62
I4
ssg63
g893
sg56
(lp900
S'session_id_welcome=127.0.0.1-3c16ef67-ec2f-4ec8-8260-17d13cf69a55; session_id_admin=127.0.0.1-0dd99b4e-ba61-458e-b626-1192cd4238f3'
p901
asbasbasbag49
(g65
g51
NtRp902
(dp903
g54
(dp904
sg63
g588
sg56
(lp905
g49
(g70
g51
NtRp906
(dp907
g54
(dp908
g74
g75
ssg63
g902
sg56
(lp909
S'http_host'
p910
asbag49
(g70
g51
NtRp911
(dp912
g54
(dp913
g81
g82
ssg63
g902
sg56
(lp914
S':'
asbag49
(g70
g51
NtRp915
(dp916
g54
(dp917
sg63
g902
sg56
(lp918
g49
(g50
g51
NtRp919
(dp920
g54
(dp921
g62
I4
ssg63
g915
sg56
(lp922
S'127.0.0.1:8000'
p923
asbasbasbag49
(g65
g51
NtRp924
(dp925
g54
(dp926
sg63
g588
sg56
(lp927
g49
(g70
g51
NtRp928
(dp929
g54
(dp930
g74
g75
ssg63
g924
sg56
(lp931
S'http_user_agent'
p932
asbag49
(g70
g51
NtRp933
(dp934
g54
(dp935
g81
g82
ssg63
g924
sg56
(lp936
S':'
asbag49
(g70
g51
NtRp937
(dp938
g54
(dp939
sg63
g924
sg56
(lp940
g49
(g50
g51
NtRp941
(dp942
g54
(dp943
g62
I4
ssg63
g937
sg56
(lp944
S'Mozilla/5.0 (Windows NT 5.1) AppleWebKit/536.5 (KHTML, like Gecko) Chrome/19.0.1084.56 Safari/536.5'
p945
asbasbasbag49
(g65
g51
NtRp946
(dp947
g54
(dp948
sg63
g588
sg56
(lp949
g49
(g70
g51
NtRp950
(dp951
g54
(dp952
g74
g75
ssg63
g946
sg56
(lp953
S'is_jython'
p954
asbag49
(g70
g51
NtRp955
(dp956
g54
(dp957
g81
g82
ssg63
g946
sg56
(lp958
S':'
asbag49
(g70
g51
NtRp959
(dp960
g54
(dp961
sg63
g946
sg56
(lp962
g49
(g50
g51
NtRp963
(dp964
g54
(dp965
g62
I4
ssg63
g959
sg56
(lp966
g92
asbasbasbag49
(g65
g51
NtRp967
(dp968
g54
(dp969
sg63
g588
sg56
(lp970
g49
(g70
g51
NtRp971
(dp972
g54
(dp973
g74
g75
ssg63
g967
sg56
(lp974
S'is_pypy'
p975
asbag49
(g70
g51
NtRp976
(dp977
g54
(dp978
g81
g82
ssg63
g967
sg56
(lp979
S':'
asbag49
(g70
g51
NtRp980
(dp981
g54
(dp982
sg63
g967
sg56
(lp983
g49
(g50
g51
NtRp984
(dp985
g54
(dp986
g62
I4
ssg63
g980
sg56
(lp987
g92
asbasbasbag49
(g65
g51
NtRp988
(dp989
g54
(dp990
sg63
g588
sg56
(lp991
g49
(g70
g51
NtRp992
(dp993
g54
(dp994
g74
g75
ssg63
g988
sg56
(lp995
S'path_info'
p996
asbag49
(g70
g51
NtRp997
(dp998
g54
(dp999
g81
g82
ssg63
g988
sg56
(lp1000
S':'
asbag49
(g70
g51
NtRp1001
(dp1002
g54
(dp1003
sg63
g988
sg56
(lp1004
g49
(g50
g51
NtRp1005
(dp1006
g54
(dp1007
g62
I4
ssg63
g1001
sg56
(lp1008
S'/Phylografter/default/index'
p1009
asbasbasbag49
(g65
g51
NtRp1010
(dp1011
g54
(dp1012
sg63
g588
sg56
(lp1013
g49
(g70
g51
NtRp1014
(dp1015
g54
(dp1016
g74
g75
ssg63
g1010
sg56
(lp1017
S'query_string'
p1018
asbag49
(g70
g51
NtRp1019
(dp1020
g54
(dp1021
g81
g82
ssg63
g1010
sg56
(lp1022
S':'
asbag49
(g70
g51
NtRp1023
(dp1024
g54
(dp1025
sg63
g1010
sg56
(lp1026
g49
(g50
g51
NtRp1027
(dp1028
g54
(dp1029
g62
I4
ssg63
g1023
sg56
(lp1030
S''
asbasbasbag49
(g65
g51
NtRp1031
(dp1032
g54
(dp1033
sg63
g588
sg56
(lp1034
g49
(g70
g51
NtRp1035
(dp1036
g54
(dp1037
g74
g75
ssg63
g1031
sg56
(lp1038
S'remote_addr'
p1039
asbag49
(g70
g51
NtRp1040
(dp1041
g54
(dp1042
g81
g82
ssg63
g1031
sg56
(lp1043
S':'
asbag49
(g70
g51
NtRp1044
(dp1045
g54
(dp1046
sg63
g1031
sg56
(lp1047
g49
(g50
g51
NtRp1048
(dp1049
g54
(dp1050
g62
I4
ssg63
g1044
sg56
(lp1051
g182
asbasbasbag49
(g65
g51
NtRp1052
(dp1053
g54
(dp1054
sg63
g588
sg56
(lp1055
g49
(g70
g51
NtRp1056
(dp1057
g54
(dp1058
g74
g75
ssg63
g1052
sg56
(lp1059
S'remote_port'
p1060
asbag49
(g70
g51
NtRp1061
(dp1062
g54
(dp1063
g81
g82
ssg63
g1052
sg56
(lp1064
S':'
asbag49
(g70
g51
NtRp1065
(dp1066
g54
(dp1067
sg63
g1052
sg56
(lp1068
g49
(g50
g51
NtRp1069
(dp1070
g54
(dp1071
g62
I4
ssg63
g1065
sg56
(lp1072
S'2304'
p1073
asbasbasbag49
(g65
g51
NtRp1074
(dp1075
g54
(dp1076
sg63
g588
sg56
(lp1077
g49
(g70
g51
NtRp1078
(dp1079
g54
(dp1080
g74
g75
ssg63
g1074
sg56
(lp1081
S'request_method'
p1082
asbag49
(g70
g51
NtRp1083
(dp1084
g54
(dp1085
g81
g82
ssg63
g1074
sg56
(lp1086
S':'
asbag49
(g70
g51
NtRp1087
(dp1088
g54
(dp1089
sg63
g1074
sg56
(lp1090
g49
(g50
g51
NtRp1091
(dp1092
g54
(dp1093
g62
I4
ssg63
g1087
sg56
(lp1094
S'GET'
p1095
asbasbasbag49
(g65
g51
NtRp1096
(dp1097
g54
(dp1098
sg63
g588
sg56
(lp1099
g49
(g70
g51
NtRp1100
(dp1101
g54
(dp1102
g74
g75
ssg63
g1096
sg56
(lp1103
S'script_name'
p1104
asbag49
(g70
g51
NtRp1105
(dp1106
g54
(dp1107
g81
g82
ssg63
g1096
sg56
(lp1108
S':'
asbag49
(g70
g51
NtRp1109
(dp1110
g54
(dp1111
sg63
g1096
sg56
(lp1112
g49
(g50
g51
NtRp1113
(dp1114
g54
(dp1115
g62
I4
ssg63
g1109
sg56
(lp1116
S''
asbasbasbag49
(g65
g51
NtRp1117
(dp1118
g54
(dp1119
sg63
g588
sg56
(lp1120
g49
(g70
g51
NtRp1121
(dp1122
g54
(dp1123
g74
g75
ssg63
g1117
sg56
(lp1124
S'server_name'
p1125
asbag49
(g70
g51
NtRp1126
(dp1127
g54
(dp1128
g81
g82
ssg63
g1117
sg56
(lp1129
S':'
asbag49
(g70
g51
NtRp1130
(dp1131
g54
(dp1132
sg63
g1117
sg56
(lp1133
g49
(g50
g51
NtRp1134
(dp1135
g54
(dp1136
g62
I4
ssg63
g1130
sg56
(lp1137
S'fm-biosync-int1'
p1138
asbasbasbag49
(g65
g51
NtRp1139
(dp1140
g54
(dp1141
sg63
g588
sg56
(lp1142
g49
(g70
g51
NtRp1143
(dp1144
g54
(dp1145
g74
g75
ssg63
g1139
sg56
(lp1146
S'server_port'
p1147
asbag49
(g70
g51
NtRp1148
(dp1149
g54
(dp1150
g81
g82
ssg63
g1139
sg56
(lp1151
S':'
asbag49
(g70
g51
NtRp1152
(dp1153
g54
(dp1154
sg63
g1139
sg56
(lp1155
g49
(g50
g51
NtRp1156
(dp1157
g54
(dp1158
g62
I4
ssg63
g1152
sg56
(lp1159
S'8000'
p1160
asbasbasbag49
(g65
g51
NtRp1161
(dp1162
g54
(dp1163
sg63
g588
sg56
(lp1164
g49
(g70
g51
NtRp1165
(dp1166
g54
(dp1167
g74
g75
ssg63
g1161
sg56
(lp1168
S'server_protocol'
p1169
asbag49
(g70
g51
NtRp1170
(dp1171
g54
(dp1172
g81
g82
ssg63
g1161
sg56
(lp1173
S':'
asbag49
(g70
g51
NtRp1174
(dp1175
g54
(dp1176
sg63
g1161
sg56
(lp1177
g49
(g50
g51
NtRp1178
(dp1179
g54
(dp1180
g62
I4
ssg63
g1174
sg56
(lp1181
S'HTTP/1.1'
p1182
asbasbasbag49
(g65
g51
NtRp1183
(dp1184
g54
(dp1185
sg63
g588
sg56
(lp1186
g49
(g70
g51
NtRp1187
(dp1188
g54
(dp1189
g74
g75
ssg63
g1183
sg56
(lp1190
S'server_software'
p1191
asbag49
(g70
g51
NtRp1192
(dp1193
g54
(dp1194
g81
g82
ssg63
g1183
sg56
(lp1195
S':'
asbag49
(g70
g51
NtRp1196
(dp1197
g54
(dp1198
sg63
g1183
sg56
(lp1199
g49
(g50
g51
NtRp1200
(dp1201
g54
(dp1202
g62
I4
ssg63
g1196
sg56
(lp1203
S'Rocket 1.2.4'
p1204
asbasbasbag49
(g65
g51
NtRp1205
(dp1206
g54
(dp1207
sg63
g588
sg56
(lp1208
g49
(g70
g51
NtRp1209
(dp1210
g54
(dp1211
g74
g75
ssg63
g1205
sg56
(lp1212
S'web2py_crontype'
p1213
asbag49
(g70
g51
NtRp1214
(dp1215
g54
(dp1216
g81
g82
ssg63
g1205
sg56
(lp1217
S':'
asbag49
(g70
g51
NtRp1218
(dp1219
g54
(dp1220
sg63
g1205
sg56
(lp1221
g49
(g50
g51
NtRp1222
(dp1223
g54
(dp1224
g62
I4
ssg63
g1218
sg56
(lp1225
S'hard'
p1226
asbasbasbag49
(g65
g51
NtRp1227
(dp1228
g54
(dp1229
sg63
g588
sg56
(lp1230
g49
(g70
g51
NtRp1231
(dp1232
g54
(dp1233
g74
g75
ssg63
g1227
sg56
(lp1234
S'web2py_path'
p1235
asbag49
(g70
g51
NtRp1236
(dp1237
g54
(dp1238
g81
g82
ssg63
g1227
sg56
(lp1239
S':'
asbag49
(g70
g51
NtRp1240
(dp1241
g54
(dp1242
sg63
g1227
sg56
(lp1243
g49
(g50
g51
NtRp1244
(dp1245
g54
(dp1246
g62
I4
ssg63
g1240
sg56
(lp1247
g635
asbasbasbag49
(g65
g51
NtRp1248
(dp1249
g54
(dp1250
sg63
g588
sg56
(lp1251
g49
(g70
g51
NtRp1252
(dp1253
g54
(dp1254
g74
g75
ssg63
g1248
sg56
(lp1255
S'web2py_version'
p1256
asbag49
(g70
g51
NtRp1257
(dp1258
g54
(dp1259
g81
g82
ssg63
g1248
sg56
(lp1260
S':'
asbag49
(g70
g51
NtRp1261
(dp1262
g54
(dp1263
sg63
g1248
sg56
(lp1264
g49
(g50
g51
NtRp1265
(dp1266
g54
(dp1267
g62
I4
ssg63
g1261
sg56
(lp1268
g49
(g58
g51
NtRp1269
(dp1270
g54
(dp1271
g62
I3
ssg63
Nsg56
(lp1272
g49
(g65
g51
NtRp1273
(dp1274
g54
(dp1275
sg63
g1269
sg56
(lp1276
g49
(g70
g51
NtRp1277
(dp1278
g54
(dp1279
sg63
g1273
sg56
(lp1280
g49
(g50
g51
NtRp1281
(dp1282
g54
(dp1283
g62
I3
ssg63
g1277
sg56
(lp1284
S'1'
asbasbasbag49
(g65
g51
NtRp1285
(dp1286
g54
(dp1287
sg63
g1269
sg56
(lp1288
g49
(g70
g51
NtRp1289
(dp1290
g54
(dp1291
sg63
g1285
sg56
(lp1292
g49
(g50
g51
NtRp1293
(dp1294
g54
(dp1295
g62
I3
ssg63
g1289
sg56
(lp1296
S'99'
p1297
asbasbasbag49
(g65
g51
NtRp1298
(dp1299
g54
(dp1300
sg63
g1269
sg56
(lp1301
g49
(g70
g51
NtRp1302
(dp1303
g54
(dp1304
sg63
g1298
sg56
(lp1305
g49
(g50
g51
NtRp1306
(dp1307
g54
(dp1308
g62
I3
ssg63
g1302
sg56
(lp1309
S'7'
asbasbasbag49
(g65
g51
NtRp1310
(dp1311
g54
(dp1312
sg63
g1269
sg56
(lp1313
g49
(g70
g51
NtRp1314
(dp1315
g54
(dp1316
sg63
g1310
sg56
(lp1317
g49
(g50
g51
NtRp1318
(dp1319
g54
(dp1320
g62
I3
ssg63
g1314
sg56
(lp1321
S'datetime.datetime(2012, 3, 4, 22, 12, 8)'
p1322
asbasbasbag49
(g65
g51
NtRp1323
(dp1324
g54
(dp1325
sg63
g1269
sg56
(lp1326
g49
(g70
g51
NtRp1327
(dp1328
g54
(dp1329
sg63
g1323
sg56
(lp1330
g49
(g50
g51
NtRp1331
(dp1332
g54
(dp1333
g62
I3
ssg63
g1327
sg56
(lp1334
S'stable'
p1335
asbasbasbasbasbasbasbag49
(g65
g51
NtRp1336
(dp1337
g54
(dp1338
sg63
g588
sg56
(lp1339
g49
(g70
g51
NtRp1340
(dp1341
g54
(dp1342
g74
g75
ssg63
g1336
sg56
(lp1343
S'wsgi_errors'
p1344
asbag49
(g70
g51
NtRp1345
(dp1346
g54
(dp1347
g81
g82
ssg63
g1336
sg56
(lp1348
S':'
asbag49
(g70
g51
NtRp1349
(dp1350
g54
(dp1351
sg63
g1336
sg56
(lp1352
g49
(g50
g51
NtRp1353
(dp1354
g54
(dp1355
g62
I4
ssg63
g1349
sg56
(lp1356
S"<open file '<stderr>', mode 'w' at 0x009000B0>"
p1357
asbasbasbag49
(g65
g51
NtRp1358
(dp1359
g54
(dp1360
sg63
g588
sg56
(lp1361
g49
(g70
g51
NtRp1362
(dp1363
g54
(dp1364
g74
g75
ssg63
g1358
sg56
(lp1365
S'wsgi_file_wrapper'
p1366
asbag49
(g70
g51
NtRp1367
(dp1368
g54
(dp1369
g81
g82
ssg63
g1358
sg56
(lp1370
S':'
asbag49
(g70
g51
NtRp1371
(dp1372
g54
(dp1373
sg63
g1358
sg56
(lp1374
g49
(g50
g51
NtRp1375
(dp1376
g54
(dp1377
g62
I4
ssg63
g1371
sg56
(lp1378
S'<class wsgiref.util.FileWrapper at 0x016471E0>'
p1379
asbasbasbag49
(g65
g51
NtRp1380
(dp1381
g54
(dp1382
sg63
g588
sg56
(lp1383
g49
(g70
g51
NtRp1384
(dp1385
g54
(dp1386
g74
g75
ssg63
g1380
sg56
(lp1387
S'wsgi_input'
p1388
asbag49
(g70
g51
NtRp1389
(dp1390
g54
(dp1391
g81
g82
ssg63
g1380
sg56
(lp1392
S':'
asbag49
(g70
g51
NtRp1393
(dp1394
g54
(dp1395
sg63
g1380
sg56
(lp1396
g49
(g50
g51
NtRp1397
(dp1398
g54
(dp1399
g62
I4
ssg63
g1393
sg56
(lp1400
S'<socket._fileobject object at 0x03A02230>'
p1401
asbasbasbag49
(g65
g51
NtRp1402
(dp1403
g54
(dp1404
sg63
g588
sg56
(lp1405
g49
(g70
g51
NtRp1406
(dp1407
g54
(dp1408
g74
g75
ssg63
g1402
sg56
(lp1409
S'wsgi_multiprocess'
p1410
asbag49
(g70
g51
NtRp1411
(dp1412
g54
(dp1413
g81
g82
ssg63
g1402
sg56
(lp1414
S':'
asbag49
(g70
g51
NtRp1415
(dp1416
g54
(dp1417
sg63
g1402
sg56
(lp1418
g49
(g50
g51
NtRp1419
(dp1420
g54
(dp1421
g62
I4
ssg63
g1415
sg56
(lp1422
g92
asbasbasbag49
(g65
g51
NtRp1423
(dp1424
g54
(dp1425
sg63
g588
sg56
(lp1426
g49
(g70
g51
NtRp1427
(dp1428
g54
(dp1429
g74
g75
ssg63
g1423
sg56
(lp1430
S'wsgi_multithread'
p1431
asbag49
(g70
g51
NtRp1432
(dp1433
g54
(dp1434
g81
g82
ssg63
g1423
sg56
(lp1435
S':'
asbag49
(g70
g51
NtRp1436
(dp1437
g54
(dp1438
sg63
g1423
sg56
(lp1439
g49
(g50
g51
NtRp1440
(dp1441
g54
(dp1442
g62
I4
ssg63
g1436
sg56
(lp1443
S'True'
p1444
asbasbasbag49
(g65
g51
NtRp1445
(dp1446
g54
(dp1447
sg63
g588
sg56
(lp1448
g49
(g70
g51
NtRp1449
(dp1450
g54
(dp1451
g74
g75
ssg63
g1445
sg56
(lp1452
S'wsgi_run_once'
p1453
asbag49
(g70
g51
NtRp1454
(dp1455
g54
(dp1456
g81
g82
ssg63
g1445
sg56
(lp1457
S':'
asbag49
(g70
g51
NtRp1458
(dp1459
g54
(dp1460
sg63
g1445
sg56
(lp1461
g49
(g50
g51
NtRp1462
(dp1463
g54
(dp1464
g62
I4
ssg63
g1458
sg56
(lp1465
g92
asbasbasbag49
(g65
g51
NtRp1466
(dp1467
g54
(dp1468
sg63
g588
sg56
(lp1469
g49
(g70
g51
NtRp1470
(dp1471
g54
(dp1472
g74
g75
ssg63
g1466
sg56
(lp1473
S'wsgi_url_scheme'
p1474
asbag49
(g70
g51
NtRp1475
(dp1476
g54
(dp1477
g81
g82
ssg63
g1466
sg56
(lp1478
S':'
asbag49
(g70
g51
NtRp1479
(dp1480
g54
(dp1481
sg63
g1466
sg56
(lp1482
g49
(g50
g51
NtRp1483
(dp1484
g54
(dp1485
g62
I4
ssg63
g1479
sg56
(lp1486
S'http'
p1487
asbasbasbag49
(g65
g51
NtRp1488
(dp1489
g54
(dp1490
sg63
g588
sg56
(lp1491
g49
(g70
g51
NtRp1492
(dp1493
g54
(dp1494
g74
g75
ssg63
g1488
sg56
(lp1495
S'wsgi_version'
p1496
asbag49
(g70
g51
NtRp1497
(dp1498
g54
(dp1499
g81
g82
ssg63
g1488
sg56
(lp1500
S':'
asbag49
(g70
g51
NtRp1501
(dp1502
g54
(dp1503
sg63
g1488
sg56
(lp1504
g49
(g50
g51
NtRp1505
(dp1506
g54
(dp1507
g62
I4
ssg63
g1501
sg56
(lp1508
g49
(g58
g51
NtRp1509
(dp1510
g54
(dp1511
g62
I3
ssg63
Nsg56
(lp1512
g49
(g65
g51
NtRp1513
(dp1514
g54
(dp1515
sg63
g1509
sg56
(lp1516
g49
(g70
g51
NtRp1517
(dp1518
g54
(dp1519
sg63
g1513
sg56
(lp1520
g49
(g50
g51
NtRp1521
(dp1522
g54
(dp1523
g62
I3
ssg63
g1517
sg56
(lp1524
S'1'
asbasbasbag49
(g65
g51
NtRp1525
(dp1526
g54
(dp1527
sg63
g1509
sg56
(lp1528
g49
(g70
g51
NtRp1529
(dp1530
g54
(dp1531
sg63
g1525
sg56
(lp1532
g49
(g50
g51
NtRp1533
(dp1534
g54
(dp1535
g62
I3
ssg63
g1529
sg56
(lp1536
S'0'
asbasbasbasbasbasbasbasbasbasbasbag49
(g65
g51
NtRp1537
(dp1538
g54
(dp1539
sg63
g59
sg56
(lp1540
g49
(g70
g51
NtRp1541
(dp1542
g54
(dp1543
g74
g75
ssg63
g1537
sg56
(lp1544
S'extension'
p1545
asbag49
(g70
g51
NtRp1546
(dp1547
g54
(dp1548
g81
g82
ssg63
g1537
sg56
(lp1549
S':'
asbag49
(g70
g51
NtRp1550
(dp1551
g54
(dp1552
sg63
g1537
sg56
(lp1553
g49
(g50
g51
NtRp1554
(dp1555
g54
(dp1556
g62
I5
ssg63
g1550
sg56
(lp1557
S'html'
p1558
asbasbasbag49
(g65
g51
NtRp1559
(dp1560
g54
(dp1561
sg63
g59
sg56
(lp1562
g49
(g70
g51
NtRp1563
(dp1564
g54
(dp1565
g74
g75
ssg63
g1559
sg56
(lp1566
S'folder'
p1567
asbag49
(g70
g51
NtRp1568
(dp1569
g54
(dp1570
g81
g82
ssg63
g1559
sg56
(lp1571
S':'
asbag49
(g70
g51
NtRp1572
(dp1573
g54
(dp1574
sg63
g1559
sg56
(lp1575
g49
(g50
g51
NtRp1576
(dp1577
g54
(dp1578
g62
I5
ssg63
g1572
sg56
(lp1579
S'C:\\Documents and Settings\\Guest\\Desktop\\web2py_win\\web2py\\applications\\Phylografter\\'
p1580
asbasbasbag49
(g65
g51
NtRp1581
(dp1582
g54
(dp1583
sg63
g59
sg56
(lp1584
g49
(g70
g51
NtRp1585
(dp1586
g54
(dp1587
g74
g75
ssg63
g1581
sg56
(lp1588
S'function'
p1589
asbag49
(g70
g51
NtRp1590
(dp1591
g54
(dp1592
g81
g82
ssg63
g1581
sg56
(lp1593
S':'
asbag49
(g70
g51
NtRp1594
(dp1595
g54
(dp1596
sg63
g1581
sg56
(lp1597
g49
(g50
g51
NtRp1598
(dp1599
g54
(dp1600
g62
I5
ssg63
g1594
sg56
(lp1601
S'index'
p1602
asbasbasbag49
(g65
g51
NtRp1603
(dp1604
g54
(dp1605
sg63
g59
sg56
(lp1606
g49
(g70
g51
NtRp1607
(dp1608
g54
(dp1609
g74
g75
ssg63
g1603
sg56
(lp1610
S'get_vars'
p1611
asbag49
(g70
g51
NtRp1612
(dp1613
g54
(dp1614
g81
g82
ssg63
g1603
sg56
(lp1615
S':'
asbag49
(g70
g51
NtRp1616
(dp1617
g54
(dp1618
sg63
g1603
sg56
(lp1619
g49
(g50
g51
NtRp1620
(dp1621
g54
(dp1622
g62
I5
ssg63
g1616
sg56
(lp1623
g49
(g58
g51
NtRp1624
(dp1625
g54
(dp1626
g62
I4
ssg63
Nsg56
(lp1627
sbasbasbasbag49
(g65
g51
NtRp1628
(dp1629
g54
(dp1630
sg63
g59
sg56
(lp1631
g49
(g70
g51
NtRp1632
(dp1633
g54
(dp1634
g74
g75
ssg63
g1628
sg56
(lp1635
S'global_settings'
p1636
asbag49
(g70
g51
NtRp1637
(dp1638
g54
(dp1639
g81
g82
ssg63
g1628
sg56
(lp1640
S':'
asbag49
(g70
g51
NtRp1641
(dp1642
g54
(dp1643
sg63
g1628
sg56
(lp1644
g49
(g50
g51
NtRp1645
(dp1646
g54
(dp1647
g62
I5
ssg63
g1641
sg56
(lp1648
g49
(g58
g51
NtRp1649
(dp1650
g54
(dp1651
g62
I4
ssg63
Nsg56
(lp1652
g49
(g65
g51
NtRp1653
(dp1654
g54
(dp1655
sg63
g1649
sg56
(lp1656
g49
(g70
g51
NtRp1657
(dp1658
g54
(dp1659
g74
g75
ssg63
g1653
sg56
(lp1660
g600
asbag49
(g70
g51
NtRp1661
(dp1662
g54
(dp1663
g81
g82
ssg63
g1653
sg56
(lp1664
S':'
asbag49
(g70
g51
NtRp1665
(dp1666
g54
(dp1667
sg63
g1653
sg56
(lp1668
g49
(g50
g51
NtRp1669
(dp1670
g54
(dp1671
g62
I4
ssg63
g1665
sg56
(lp1672
S"set(['C:\\\\Documents and Settings\\\\Guest\\\\Desktop\\\\web2py_win\\\\web2py\\\\applications\\\\Phylografter\\\\', 'C:\\\\Documents and Settings\\\\Guest\\\\Desktop\\\\web2py_win\\\\web2py\\\\applications\\\\welcome\\\\', 'C:\\\\Documents and Settings\\\\Guest\\\\Desktop\\\\web2py_win\\\\web2py\\\\applications\\\\admin\\\\'])"
p1673
asbasbasbag49
(g65
g51
NtRp1674
(dp1675
g54
(dp1676
sg63
g1649
sg56
(lp1677
g49
(g70
g51
NtRp1678
(dp1679
g54
(dp1680
g74
g75
ssg63
g1674
sg56
(lp1681
g622
asbag49
(g70
g51
NtRp1682
(dp1683
g54
(dp1684
g81
g82
ssg63
g1674
sg56
(lp1685
S':'
asbag49
(g70
g51
NtRp1686
(dp1687
g54
(dp1688
sg63
g1674
sg56
(lp1689
g49
(g50
g51
NtRp1690
(dp1691
g54
(dp1692
g62
I4
ssg63
g1686
sg56
(lp1693
g635
asbasbasbag49
(g65
g51
NtRp1694
(dp1695
g54
(dp1696
sg63
g1649
sg56
(lp1697
g49
(g70
g51
NtRp1698
(dp1699
g54
(dp1700
g74
g75
ssg63
g1694
sg56
(lp1701
g644
asbag49
(g70
g51
NtRp1702
(dp1703
g54
(dp1704
g81
g82
ssg63
g1694
sg56
(lp1705
S':'
asbag49
(g70
g51
NtRp1706
(dp1707
g54
(dp1708
sg63
g1694
sg56
(lp1709
g49
(g50
g51
NtRp1710
(dp1711
g54
(dp1712
g62
I4
ssg63
g1706
sg56
(lp1713
g49
(g58
g51
NtRp1714
(dp1715
g54
(dp1716
g62
I3
ssg63
Nsg56
(lp1717
sbasbasbasbag49
(g65
g51
NtRp1718
(dp1719
g54
(dp1720
sg63
g1649
sg56
(lp1721
g49
(g70
g51
NtRp1722
(dp1723
g54
(dp1724
g74
g75
ssg63
g1718
sg56
(lp1725
g669
asbag49
(g70
g51
NtRp1726
(dp1727
g54
(dp1728
g81
g82
ssg63
g1718
sg56
(lp1729
S':'
asbag49
(g70
g51
NtRp1730
(dp1731
g54
(dp1732
sg63
g1718
sg56
(lp1733
g49
(g50
g51
NtRp1734
(dp1735
g54
(dp1736
g62
I4
ssg63
g1730
sg56
(lp1737
S"<Values at 0x1879878: {'verbose': False, 'ip': '127.0.0.1', 'shutdown_timeout': 5, 'taskbar': False, 'nocron': False, 'pid_filename': 'httpserver.pid', 'maxthreads': None, 'softcron': False, 'server_name': 'fm-biosync-int1', 'bpython': False, 'nogui': False, 'port': 8000, 'extcron': False, 'debuglevel': 30, 'test': None, 'folder': 'C:\\\\Documents and Settings\\\\Guest\\\\Desktop\\\\web2py_win\\\\web2py', 'config': '', 'import_models': False, 'winservice': '', 'shell': None, 'run': '', 'log_filename': 'httpserver.log', 'args': [''], 'socket_timeout': 5, 'ssl_ca_certificate': None, 'scheduler': None, 'profiler_filename': None, 'ssl_private_key': '', 'password': '<ask>', 'request_queue_size': 5, 'ssl_certificate': '', 'cronjob': False, 'numthreads': None, 'quiet': False, 'interfaces': None, 'minthreads': None, 'timeout': 10, 'plain': False, 'nobanner': False}>"
p1738
asbasbasbag49
(g65
g51
NtRp1739
(dp1740
g54
(dp1741
sg63
g1649
sg56
(lp1742
g49
(g70
g51
NtRp1743
(dp1744
g54
(dp1745
g74
g75
ssg63
g1739
sg56
(lp1746
g691
asbag49
(g70
g51
NtRp1747
(dp1748
g54
(dp1749
g81
g82
ssg63
g1739
sg56
(lp1750
S':'
asbag49
(g70
g51
NtRp1751
(dp1752
g54
(dp1753
sg63
g1739
sg56
(lp1754
g49
(g50
g51
NtRp1755
(dp1756
g54
(dp1757
g62
I4
ssg63
g1751
sg56
(lp1758
S'set([])'
p1759
asbasbasbag49
(g65
g51
NtRp1760
(dp1761
g54
(dp1762
sg63
g1649
sg56
(lp1763
g49
(g70
g51
NtRp1764
(dp1765
g54
(dp1766
g74
g75
ssg63
g1760
sg56
(lp1767
g713
asbag49
(g70
g51
NtRp1768
(dp1769
g54
(dp1770
g81
g82
ssg63
g1760
sg56
(lp1771
S':'
asbag49
(g70
g51
NtRp1772
(dp1773
g54
(dp1774
sg63
g1760
sg56
(lp1775
g49
(g50
g51
NtRp1776
(dp1777
g54
(dp1778
g62
I4
ssg63
g1772
sg56
(lp1779
g92
asbasbasbag49
(g65
g51
NtRp1780
(dp1781
g54
(dp1782
sg63
g1649
sg56
(lp1783
g49
(g70
g51
NtRp1784
(dp1785
g54
(dp1786
g74
g75
ssg63
g1780
sg56
(lp1787
g734
asbag49
(g70
g51
NtRp1788
(dp1789
g54
(dp1790
g81
g82
ssg63
g1780
sg56
(lp1791
S':'
asbag49
(g70
g51
NtRp1792
(dp1793
g54
(dp1794
sg63
g1780
sg56
(lp1795
g49
(g50
g51
NtRp1796
(dp1797
g54
(dp1798
g62
I4
ssg63
g1792
sg56
(lp1799
g747
asbasbasbag49
(g65
g51
NtRp1800
(dp1801
g54
(dp1802
sg63
g1649
sg56
(lp1803
g49
(g70
g51
NtRp1804
(dp1805
g54
(dp1806
g74
g75
ssg63
g1800
sg56
(lp1807
g954
asbag49
(g70
g51
NtRp1808
(dp1809
g54
(dp1810
g81
g82
ssg63
g1800
sg56
(lp1811
S':'
asbag49
(g70
g51
NtRp1812
(dp1813
g54
(dp1814
sg63
g1800
sg56
(lp1815
g49
(g50
g51
NtRp1816
(dp1817
g54
(dp1818
g62
I4
ssg63
g1812
sg56
(lp1819
g92
asbasbasbag49
(g65
g51
NtRp1820
(dp1821
g54
(dp1822
sg63
g1649
sg56
(lp1823
g49
(g70
g51
NtRp1824
(dp1825
g54
(dp1826
g74
g75
ssg63
g1820
sg56
(lp1827
g975
asbag49
(g70
g51
NtRp1828
(dp1829
g54
(dp1830
g81
g82
ssg63
g1820
sg56
(lp1831
S':'
asbag49
(g70
g51
NtRp1832
(dp1833
g54
(dp1834
sg63
g1820
sg56
(lp1835
g49
(g50
g51
NtRp1836
(dp1837
g54
(dp1838
g62
I4
ssg63
g1832
sg56
(lp1839
g92
asbasbasbag49
(g65
g51
NtRp1840
(dp1841
g54
(dp1842
sg63
g1649
sg56
(lp1843
g49
(g70
g51
NtRp1844
(dp1845
g54
(dp1846
g74
g75
ssg63
g1840
sg56
(lp1847
g1213
asbag49
(g70
g51
NtRp1848
(dp1849
g54
(dp1850
g81
g82
ssg63
g1840
sg56
(lp1851
S':'
asbag49
(g70
g51
NtRp1852
(dp1853
g54
(dp1854
sg63
g1840
sg56
(lp1855
g49
(g50
g51
NtRp1856
(dp1857
g54
(dp1858
g62
I4
ssg63
g1852
sg56
(lp1859
g1226
asbasbasbag49
(g65
g51
NtRp1860
(dp1861
g54
(dp1862
sg63
g1649
sg56
(lp1863
g49
(g70
g51
NtRp1864
(dp1865
g54
(dp1866
g74
g75
ssg63
g1860
sg56
(lp1867
g1256
asbag49
(g70
g51
NtRp1868
(dp1869
g54
(dp1870
g81
g82
ssg63
g1860
sg56
(lp1871
S':'
asbag49
(g70
g51
NtRp1872
(dp1873
g54
(dp1874
sg63
g1860
sg56
(lp1875
g49
(g50
g51
NtRp1876
(dp1877
g54
(dp1878
g62
I4
ssg63
g1872
sg56
(lp1879
g49
(g58
g51
NtRp1880
(dp1881
g54
(dp1882
g62
I3
ssg63
Nsg56
(lp1883
g49
(g65
g51
NtRp1884
(dp1885
g54
(dp1886
sg63
g1880
sg56
(lp1887
g49
(g70
g51
NtRp1888
(dp1889
g54
(dp1890
sg63
g1884
sg56
(lp1891
g49
(g50
g51
NtRp1892
(dp1893
g54
(dp1894
g62
I3
ssg63
g1888
sg56
(lp1895
S'1'
asbasbasbag49
(g65
g51
NtRp1896
(dp1897
g54
(dp1898
sg63
g1880
sg56
(lp1899
g49
(g70
g51
NtRp1900
(dp1901
g54
(dp1902
sg63
g1896
sg56
(lp1903
g49
(g50
g51
NtRp1904
(dp1905
g54
(dp1906
g62
I3
ssg63
g1900
sg56
(lp1907
S'99'
p1908
asbasbasbag49
(g65
g51
NtRp1909
(dp1910
g54
(dp1911
sg63
g1880
sg56
(lp1912
g49
(g70
g51
NtRp1913
(dp1914
g54
(dp1915
sg63
g1909
sg56
(lp1916
g49
(g50
g51
NtRp1917
(dp1918
g54
(dp1919
g62
I3
ssg63
g1913
sg56
(lp1920
S'7'
asbasbasbag49
(g65
g51
NtRp1921
(dp1922
g54
(dp1923
sg63
g1880
sg56
(lp1924
g49
(g70
g51
NtRp1925
(dp1926
g54
(dp1927
sg63
g1921
sg56
(lp1928
g49
(g50
g51
NtRp1929
(dp1930
g54
(dp1931
g62
I3
ssg63
g1925
sg56
(lp1932
S'datetime.datetime(2012, 3, 4, 22, 12, 8)'
p1933
asbasbasbag49
(g65
g51
NtRp1934
(dp1935
g54
(dp1936
sg63
g1880
sg56
(lp1937
g49
(g70
g51
NtRp1938
(dp1939
g54
(dp1940
sg63
g1934
sg56
(lp1941
g49
(g50
g51
NtRp1942
(dp1943
g54
(dp1944
g62
I3
ssg63
g1938
sg56
(lp1945
g1335
asbasbasbasbasbasbasbasbasbasbasbag49
(g65
g51
NtRp1946
(dp1947
g54
(dp1948
sg63
g59
sg56
(lp1949
g49
(g70
g51
NtRp1950
(dp1951
g54
(dp1952
g74
g75
ssg63
g1946
sg56
(lp1953
S'is_https'
p1954
asbag49
(g70
g51
NtRp1955
(dp1956
g54
(dp1957
g81
g82
ssg63
g1946
sg56
(lp1958
S':'
asbag49
(g70
g51
NtRp1959
(dp1960
g54
(dp1961
sg63
g1946
sg56
(lp1962
g49
(g50
g51
NtRp1963
(dp1964
g54
(dp1965
g62
I5
ssg63
g1959
sg56
(lp1966
g92
asbasbasbag49
(g65
g51
NtRp1967
(dp1968
g54
(dp1969
sg63
g59
sg56
(lp1970
g49
(g70
g51
NtRp1971
(dp1972
g54
(dp1973
g74
g75
ssg63
g1967
sg56
(lp1974
S'is_local'
p1975
asbag49
(g70
g51
NtRp1976
(dp1977
g54
(dp1978
g81
g82
ssg63
g1967
sg56
(lp1979
S':'
asbag49
(g70
g51
NtRp1980
(dp1981
g54
(dp1982
sg63
g1967
sg56
(lp1983
g49
(g50
g51
NtRp1984
(dp1985
g54
(dp1986
g62
I5
ssg63
g1980
sg56
(lp1987
g1444
asbasbasbag49
(g65
g51
NtRp1988
(dp1989
g54
(dp1990
sg63
g59
sg56
(lp1991
g49
(g70
g51
NtRp1992
(dp1993
g54
(dp1994
g74
g75
ssg63
g1988
sg56
(lp1995
S'is_restful'
p1996
asbag49
(g70
g51
NtRp1997
(dp1998
g54
(dp1999
g81
g82
ssg63
g1988
sg56
(lp2000
S':'
asbag49
(g70
g51
NtRp2001
(dp2002
g54
(dp2003
sg63
g1988
sg56
(lp2004
g49
(g50
g51
NtRp2005
(dp2006
g54
(dp2007
g62
I5
ssg63
g2001
sg56
(lp2008
g92
asbasbasbag49
(g65
g51
NtRp2009
(dp2010
g54
(dp2011
sg63
g59
sg56
(lp2012
g49
(g70
g51
NtRp2013
(dp2014
g54
(dp2015
g74
g75
ssg63
g2009
sg56
(lp2016
S'now'
p2017
asbag49
(g70
g51
NtRp2018
(dp2019
g54
(dp2020
g81
g82
ssg63
g2009
sg56
(lp2021
S':'
asbag49
(g70
g51
NtRp2022
(dp2023
g54
(dp2024
sg63
g2009
sg56
(lp2025
g49
(g50
g51
NtRp2026
(dp2027
g54
(dp2028
g62
I5
ssg63
g2022
sg56
(lp2029
S'datetime.datetime(2012, 6, 13, 12, 36, 8, 890000)'
p2030
asbasbasbag49
(g65
g51
NtRp2031
(dp2032
g54
(dp2033
sg63
g59
sg56
(lp2034
g49
(g70
g51
NtRp2035
(dp2036
g54
(dp2037
g74
g75
ssg63
g2031
sg56
(lp2038
S'post_vars'
p2039
asbag49
(g70
g51
NtRp2040
(dp2041
g54
(dp2042
g81
g82
ssg63
g2031
sg56
(lp2043
S':'
asbag49
(g70
g51
NtRp2044
(dp2045
g54
(dp2046
sg63
g2031
sg56
(lp2047
g49
(g50
g51
NtRp2048
(dp2049
g54
(dp2050
g62
I5
ssg63
g2044
sg56
(lp2051
g49
(g58
g51
NtRp2052
(dp2053
g54
(dp2054
g62
I4
ssg63
Nsg56
(lp2055
sbasbasbasbag49
(g65
g51
NtRp2056
(dp2057
g54
(dp2058
sg63
g59
sg56
(lp2059
g49
(g70
g51
NtRp2060
(dp2061
g54
(dp2062
g74
g75
ssg63
g2056
sg56
(lp2063
S'url'
p2064
asbag49
(g70
g51
NtRp2065
(dp2066
g54
(dp2067
g81
g82
ssg63
g2056
sg56
(lp2068
S':'
asbag49
(g70
g51
NtRp2069
(dp2070
g54
(dp2071
sg63
g2056
sg56
(lp2072
g49
(g50
g51
NtRp2073
(dp2074
g54
(dp2075
g62
I5
ssg63
g2069
sg56
(lp2076
S'/Phylografter/default/index'
p2077
asbasbasbag49
(g65
g51
NtRp2078
(dp2079
g54
(dp2080
sg63
g59
sg56
(lp2081
g49
(g70
g51
NtRp2082
(dp2083
g54
(dp2084
g74
g75
ssg63
g2078
sg56
(lp2085
S'utcnow'
p2086
asbag49
(g70
g51
NtRp2087
(dp2088
g54
(dp2089
g81
g82
ssg63
g2078
sg56
(lp2090
S':'
asbag49
(g70
g51
NtRp2091
(dp2092
g54
(dp2093
sg63
g2078
sg56
(lp2094
g49
(g50
g51
NtRp2095
(dp2096
g54
(dp2097
g62
I5
ssg63
g2091
sg56
(lp2098
S'datetime.datetime(2012, 6, 13, 17, 36, 8, 890000)'
p2099
asbasbasbag49
(g65
g51
NtRp2100
(dp2101
g54
(dp2102
sg63
g59
sg56
(lp2103
g49
(g70
g51
NtRp2104
(dp2105
g54
(dp2106
g74
g75
ssg63
g2100
sg56
(lp2107
S'uuid'
p2108
asbag49
(g70
g51
NtRp2109
(dp2110
g54
(dp2111
g81
g82
ssg63
g2100
sg56
(lp2112
S':'
asbag49
(g70
g51
NtRp2113
(dp2114
g54
(dp2115
sg63
g2100
sg56
(lp2116
g49
(g50
g51
NtRp2117
(dp2118
g54
(dp2119
g62
I5
ssg63
g2113
sg56
(lp2120
S'Phylografter/127.0.0.1.2012-06-13.12-36-08.54ccd455-230d-480e-bdb7-fd3ce97c51af'
p2121
asbasbasbag49
(g65
g51
NtRp2122
(dp2123
g54
(dp2124
sg63
g59
sg56
(lp2125
g49
(g70
g51
NtRp2126
(dp2127
g54
(dp2128
g74
g75
ssg63
g2122
sg56
(lp2129
S'vars'
p2130
asbag49
(g70
g51
NtRp2131
(dp2132
g54
(dp2133
g81
g82
ssg63
g2122
sg56
(lp2134
S':'
asbag49
(g70
g51
NtRp2135
(dp2136
g54
(dp2137
sg63
g2122
sg56
(lp2138
g49
(g50
g51
NtRp2139
(dp2140
g54
(dp2141
g62
I5
ssg63
g2135
sg56
(lp2142
g49
(g58
g51
NtRp2143
(dp2144
g54
(dp2145
g62
I4
ssg63
Nsg56
(lp2146
sbasbasbasbag49
(g65
g51
NtRp2147
(dp2148
g54
(dp2149
sg63
g59
sg56
(lp2150
g49
(g70
g51
NtRp2151
(dp2152
g54
(dp2153
g74
g75
ssg63
g2147
sg56
(lp2154
S'wsgi'
p2155
asbag49
(g70
g51
NtRp2156
(dp2157
g54
(dp2158
g81
g82
ssg63
g2147
sg56
(lp2159
S':'
asbag49
(g70
g51
NtRp2160
(dp2161
g54
(dp2162
sg63
g2147
sg56
(lp2163
g49
(g50
g51
NtRp2164
(dp2165
g54
(dp2166
g62
I5
ssg63
g2160
sg56
(lp2167
g49
(g58
g51
NtRp2168
(dp2169
g54
(dp2170
g62
I4
ssg63
Nsg56
(lp2171
g49
(g65
g51
NtRp2172
(dp2173
g54
(dp2174
sg63
g2168
sg56
(lp2175
g49
(g70
g51
NtRp2176
(dp2177
g54
(dp2178
g74
g75
ssg63
g2172
sg56
(lp2179
S'environ'
p2180
asbag49
(g70
g51
NtRp2181
(dp2182
g54
(dp2183
g81
g82
ssg63
g2172
sg56
(lp2184
S':'
asbag49
(g70
g51
NtRp2185
(dp2186
g54
(dp2187
sg63
g2172
sg56
(lp2188
g49
(g50
g51
NtRp2189
(dp2190
g54
(dp2191
g62
I4
ssg63
g2185
sg56
(lp2192
g49
(g58
g51
NtRp2193
(dp2194
g54
(dp2195
g62
I3
ssg63
Nsg56
(lp2196
g49
(g65
g51
NtRp2197
(dp2198
g54
(dp2199
sg63
g2193
sg56
(lp2200
g49
(g70
g51
NtRp2201
(dp2202
g54
(dp2203
g74
g75
ssg63
g2197
sg56
(lp2204
S'HTTP_ACCEPT'
p2205
asbag49
(g70
g51
NtRp2206
(dp2207
g54
(dp2208
g81
g82
ssg63
g2197
sg56
(lp2209
S':'
asbag49
(g70
g51
NtRp2210
(dp2211
g54
(dp2212
sg63
g2197
sg56
(lp2213
g49
(g50
g51
NtRp2214
(dp2215
g54
(dp2216
g62
I3
ssg63
g2210
sg56
(lp2217
g769
asbasbasbag49
(g65
g51
NtRp2218
(dp2219
g54
(dp2220
sg63
g2193
sg56
(lp2221
g49
(g70
g51
NtRp2222
(dp2223
g54
(dp2224
g74
g75
ssg63
g2218
sg56
(lp2225
S'HTTP_ACCEPT_CHARSET'
p2226
asbag49
(g70
g51
NtRp2227
(dp2228
g54
(dp2229
g81
g82
ssg63
g2218
sg56
(lp2230
S':'
asbag49
(g70
g51
NtRp2231
(dp2232
g54
(dp2233
sg63
g2218
sg56
(lp2234
g49
(g50
g51
NtRp2235
(dp2236
g54
(dp2237
g62
I3
ssg63
g2231
sg56
(lp2238
g791
asbasbasbag49
(g65
g51
NtRp2239
(dp2240
g54
(dp2241
sg63
g2193
sg56
(lp2242
g49
(g70
g51
NtRp2243
(dp2244
g54
(dp2245
g74
g75
ssg63
g2239
sg56
(lp2246
S'HTTP_ACCEPT_ENCODING'
p2247
asbag49
(g70
g51
NtRp2248
(dp2249
g54
(dp2250
g81
g82
ssg63
g2239
sg56
(lp2251
S':'
asbag49
(g70
g51
NtRp2252
(dp2253
g54
(dp2254
sg63
g2239
sg56
(lp2255
g49
(g50
g51
NtRp2256
(dp2257
g54
(dp2258
g62
I3
ssg63
g2252
sg56
(lp2259
g813
asbasbasbag49
(g65
g51
NtRp2260
(dp2261
g54
(dp2262
sg63
g2193
sg56
(lp2263
g49
(g70
g51
NtRp2264
(dp2265
g54
(dp2266
g74
g75
ssg63
g2260
sg56
(lp2267
S'HTTP_ACCEPT_LANGUAGE'
p2268
asbag49
(g70
g51
NtRp2269
(dp2270
g54
(dp2271
g81
g82
ssg63
g2260
sg56
(lp2272
S':'
asbag49
(g70
g51
NtRp2273
(dp2274
g54
(dp2275
sg63
g2260
sg56
(lp2276
g49
(g50
g51
NtRp2277
(dp2278
g54
(dp2279
g62
I3
ssg63
g2273
sg56
(lp2280
g835
asbasbasbag49
(g65
g51
NtRp2281
(dp2282
g54
(dp2283
sg63
g2193
sg56
(lp2284
g49
(g70
g51
NtRp2285
(dp2286
g54
(dp2287
g74
g75
ssg63
g2281
sg56
(lp2288
S'HTTP_CACHE_CONTROL'
p2289
asbag49
(g70
g51
NtRp2290
(dp2291
g54
(dp2292
g81
g82
ssg63
g2281
sg56
(lp2293
S':'
asbag49
(g70
g51
NtRp2294
(dp2295
g54
(dp2296
sg63
g2281
sg56
(lp2297
g49
(g50
g51
NtRp2298
(dp2299
g54
(dp2300
g62
I3
ssg63
g2294
sg56
(lp2301
g857
asbasbasbag49
(g65
g51
NtRp2302
(dp2303
g54
(dp2304
sg63
g2193
sg56
(lp2305
g49
(g70
g51
NtRp2306
(dp2307
g54
(dp2308
g74
g75
ssg63
g2302
sg56
(lp2309
S'HTTP_CONNECTION'
p2310
asbag49
(g70
g51
NtRp2311
(dp2312
g54
(dp2313
g81
g82
ssg63
g2302
sg56
(lp2314
S':'
asbag49
(g70
g51
NtRp2315
(dp2316
g54
(dp2317
sg63
g2302
sg56
(lp2318
g49
(g50
g51
NtRp2319
(dp2320
g54
(dp2321
g62
I3
ssg63
g2315
sg56
(lp2322
g879
asbasbasbag49
(g65
g51
NtRp2323
(dp2324
g54
(dp2325
sg63
g2193
sg56
(lp2326
g49
(g70
g51
NtRp2327
(dp2328
g54
(dp2329
g74
g75
ssg63
g2323
sg56
(lp2330
S'HTTP_COOKIE'
p2331
asbag49
(g70
g51
NtRp2332
(dp2333
g54
(dp2334
g81
g82
ssg63
g2323
sg56
(lp2335
S':'
asbag49
(g70
g51
NtRp2336
(dp2337
g54
(dp2338
sg63
g2323
sg56
(lp2339
g49
(g50
g51
NtRp2340
(dp2341
g54
(dp2342
g62
I3
ssg63
g2336
sg56
(lp2343
g901
asbasbasbag49
(g65
g51
NtRp2344
(dp2345
g54
(dp2346
sg63
g2193
sg56
(lp2347
g49
(g70
g51
NtRp2348
(dp2349
g54
(dp2350
g74
g75
ssg63
g2344
sg56
(lp2351
S'HTTP_HOST'
p2352
asbag49
(g70
g51
NtRp2353
(dp2354
g54
(dp2355
g81
g82
ssg63
g2344
sg56
(lp2356
S':'
asbag49
(g70
g51
NtRp2357
(dp2358
g54
(dp2359
sg63
g2344
sg56
(lp2360
g49
(g50
g51
NtRp2361
(dp2362
g54
(dp2363
g62
I3
ssg63
g2357
sg56
(lp2364
g923
asbasbasbag49
(g65
g51
NtRp2365
(dp2366
g54
(dp2367
sg63
g2193
sg56
(lp2368
g49
(g70
g51
NtRp2369
(dp2370
g54
(dp2371
g74
g75
ssg63
g2365
sg56
(lp2372
S'HTTP_USER_AGENT'
p2373
asbag49
(g70
g51
NtRp2374
(dp2375
g54
(dp2376
g81
g82
ssg63
g2365
sg56
(lp2377
S':'
asbag49
(g70
g51
NtRp2378
(dp2379
g54
(dp2380
sg63
g2365
sg56
(lp2381
g49
(g50
g51
NtRp2382
(dp2383
g54
(dp2384
g62
I3
ssg63
g2378
sg56
(lp2385
g945
asbasbasbag49
(g65
g51
NtRp2386
(dp2387
g54
(dp2388
sg63
g2193
sg56
(lp2389
g49
(g70
g51
NtRp2390
(dp2391
g54
(dp2392
g74
g75
ssg63
g2386
sg56
(lp2393
S'PATH_INFO'
p2394
asbag49
(g70
g51
NtRp2395
(dp2396
g54
(dp2397
g81
g82
ssg63
g2386
sg56
(lp2398
S':'
asbag49
(g70
g51
NtRp2399
(dp2400
g54
(dp2401
sg63
g2386
sg56
(lp2402
g49
(g50
g51
NtRp2403
(dp2404
g54
(dp2405
g62
I3
ssg63
g2399
sg56
(lp2406
g1009
asbasbasbag49
(g65
g51
NtRp2407
(dp2408
g54
(dp2409
sg63
g2193
sg56
(lp2410
g49
(g70
g51
NtRp2411
(dp2412
g54
(dp2413
g74
g75
ssg63
g2407
sg56
(lp2414
S'QUERY_STRING'
p2415
asbag49
(g70
g51
NtRp2416
(dp2417
g54
(dp2418
g81
g82
ssg63
g2407
sg56
(lp2419
S':'
asbag49
(g70
g51
NtRp2420
(dp2421
g54
(dp2422
sg63
g2407
sg56
(lp2423
g49
(g50
g51
NtRp2424
(dp2425
g54
(dp2426
g62
I3
ssg63
g2420
sg56
(lp2427
S''
asbasbasbag49
(g65
g51
NtRp2428
(dp2429
g54
(dp2430
sg63
g2193
sg56
(lp2431
g49
(g70
g51
NtRp2432
(dp2433
g54
(dp2434
g74
g75
ssg63
g2428
sg56
(lp2435
S'REMOTE_ADDR'
p2436
asbag49
(g70
g51
NtRp2437
(dp2438
g54
(dp2439
g81
g82
ssg63
g2428
sg56
(lp2440
S':'
asbag49
(g70
g51
NtRp2441
(dp2442
g54
(dp2443
sg63
g2428
sg56
(lp2444
g49
(g50
g51
NtRp2445
(dp2446
g54
(dp2447
g62
I3
ssg63
g2441
sg56
(lp2448
g182
asbasbasbag49
(g65
g51
NtRp2449
(dp2450
g54
(dp2451
sg63
g2193
sg56
(lp2452
g49
(g70
g51
NtRp2453
(dp2454
g54
(dp2455
g74
g75
ssg63
g2449
sg56
(lp2456
S'REMOTE_PORT'
p2457
asbag49
(g70
g51
NtRp2458
(dp2459
g54
(dp2460
g81
g82
ssg63
g2449
sg56
(lp2461
S':'
asbag49
(g70
g51
NtRp2462
(dp2463
g54
(dp2464
sg63
g2449
sg56
(lp2465
g49
(g50
g51
NtRp2466
(dp2467
g54
(dp2468
g62
I3
ssg63
g2462
sg56
(lp2469
g1073
asbasbasbag49
(g65
g51
NtRp2470
(dp2471
g54
(dp2472
sg63
g2193
sg56
(lp2473
g49
(g70
g51
NtRp2474
(dp2475
g54
(dp2476
g74
g75
ssg63
g2470
sg56
(lp2477
S'REQUEST_METHOD'
p2478
asbag49
(g70
g51
NtRp2479
(dp2480
g54
(dp2481
g81
g82
ssg63
g2470
sg56
(lp2482
S':'
asbag49
(g70
g51
NtRp2483
(dp2484
g54
(dp2485
sg63
g2470
sg56
(lp2486
g49
(g50
g51
NtRp2487
(dp2488
g54
(dp2489
g62
I3
ssg63
g2483
sg56
(lp2490
g1095
asbasbasbag49
(g65
g51
NtRp2491
(dp2492
g54
(dp2493
sg63
g2193
sg56
(lp2494
g49
(g70
g51
NtRp2495
(dp2496
g54
(dp2497
g74
g75
ssg63
g2491
sg56
(lp2498
S'SCRIPT_NAME'
p2499
asbag49
(g70
g51
NtRp2500
(dp2501
g54
(dp2502
g81
g82
ssg63
g2491
sg56
(lp2503
S':'
asbag49
(g70
g51
NtRp2504
(dp2505
g54
(dp2506
sg63
g2491
sg56
(lp2507
g49
(g50
g51
NtRp2508
(dp2509
g54
(dp2510
g62
I3
ssg63
g2504
sg56
(lp2511
S''
asbasbasbag49
(g65
g51
NtRp2512
(dp2513
g54
(dp2514
sg63
g2193
sg56
(lp2515
g49
(g70
g51
NtRp2516
(dp2517
g54
(dp2518
g74
g75
ssg63
g2512
sg56
(lp2519
S'SERVER_NAME'
p2520
asbag49
(g70
g51
NtRp2521
(dp2522
g54
(dp2523
g81
g82
ssg63
g2512
sg56
(lp2524
S':'
asbag49
(g70
g51
NtRp2525
(dp2526
g54
(dp2527
sg63
g2512
sg56
(lp2528
g49
(g50
g51
NtRp2529
(dp2530
g54
(dp2531
g62
I3
ssg63
g2525
sg56
(lp2532
g1138
asbasbasbag49
(g65
g51
NtRp2533
(dp2534
g54
(dp2535
sg63
g2193
sg56
(lp2536
g49
(g70
g51
NtRp2537
(dp2538
g54
(dp2539
g74
g75
ssg63
g2533
sg56
(lp2540
S'SERVER_PORT'
p2541
asbag49
(g70
g51
NtRp2542
(dp2543
g54
(dp2544
g81
g82
ssg63
g2533
sg56
(lp2545
S':'
asbag49
(g70
g51
NtRp2546
(dp2547
g54
(dp2548
sg63
g2533
sg56
(lp2549
g49
(g50
g51
NtRp2550
(dp2551
g54
(dp2552
g62
I3
ssg63
g2546
sg56
(lp2553
g1160
asbasbasbag49
(g65
g51
NtRp2554
(dp2555
g54
(dp2556
sg63
g2193
sg56
(lp2557
g49
(g70
g51
NtRp2558
(dp2559
g54
(dp2560
g74
g75
ssg63
g2554
sg56
(lp2561
S'SERVER_PROTOCOL'
p2562
asbag49
(g70
g51
NtRp2563
(dp2564
g54
(dp2565
g81
g82
ssg63
g2554
sg56
(lp2566
S':'
asbag49
(g70
g51
NtRp2567
(dp2568
g54
(dp2569
sg63
g2554
sg56
(lp2570
g49
(g50
g51
NtRp2571
(dp2572
g54
(dp2573
g62
I3
ssg63
g2567
sg56
(lp2574
g1182
asbasbasbag49
(g65
g51
NtRp2575
(dp2576
g54
(dp2577
sg63
g2193
sg56
(lp2578
g49
(g70
g51
NtRp2579
(dp2580
g54
(dp2581
g74
g75
ssg63
g2575
sg56
(lp2582
S'SERVER_SOFTWARE'
p2583
asbag49
(g70
g51
NtRp2584
(dp2585
g54
(dp2586
g81
g82
ssg63
g2575
sg56
(lp2587
S':'
asbag49
(g70
g51
NtRp2588
(dp2589
g54
(dp2590
sg63
g2575
sg56
(lp2591
g49
(g50
g51
NtRp2592
(dp2593
g54
(dp2594
g62
I3
ssg63
g2588
sg56
(lp2595
g1204
asbasbasbag49
(g65
g51
NtRp2596
(dp2597
g54
(dp2598
sg63
g2193
sg56
(lp2599
g49
(g70
g51
NtRp2600
(dp2601
g54
(dp2602
g74
g75
ssg63
g2596
sg56
(lp2603
S'wsgi.errors'
p2604
asbag49
(g70
g51
NtRp2605
(dp2606
g54
(dp2607
g81
g82
ssg63
g2596
sg56
(lp2608
S':'
asbag49
(g70
g51
NtRp2609
(dp2610
g54
(dp2611
sg63
g2596
sg56
(lp2612
g49
(g50
g51
NtRp2613
(dp2614
g54
(dp2615
g62
I3
ssg63
g2609
sg56
(lp2616
S"<open file '<stderr>', mode 'w' at 0x009000B0>"
p2617
asbasbasbag49
(g65
g51
NtRp2618
(dp2619
g54
(dp2620
sg63
g2193
sg56
(lp2621
g49
(g70
g51
NtRp2622
(dp2623
g54
(dp2624
g74
g75
ssg63
g2618
sg56
(lp2625
S'wsgi.file_wrapper'
p2626
asbag49
(g70
g51
NtRp2627
(dp2628
g54
(dp2629
g81
g82
ssg63
g2618
sg56
(lp2630
S':'
asbag49
(g70
g51
NtRp2631
(dp2632
g54
(dp2633
sg63
g2618
sg56
(lp2634
g49
(g50
g51
NtRp2635
(dp2636
g54
(dp2637
g62
I3
ssg63
g2631
sg56
(lp2638
S'<class wsgiref.util.FileWrapper at 0x016471E0>'
p2639
asbasbasbag49
(g65
g51
NtRp2640
(dp2641
g54
(dp2642
sg63
g2193
sg56
(lp2643
g49
(g70
g51
NtRp2644
(dp2645
g54
(dp2646
g74
g75
ssg63
g2640
sg56
(lp2647
S'wsgi.input'
p2648
asbag49
(g70
g51
NtRp2649
(dp2650
g54
(dp2651
g81
g82
ssg63
g2640
sg56
(lp2652
S':'
asbag49
(g70
g51
NtRp2653
(dp2654
g54
(dp2655
sg63
g2640
sg56
(lp2656
g49
(g50
g51
NtRp2657
(dp2658
g54
(dp2659
g62
I3
ssg63
g2653
sg56
(lp2660
S'<cStringIO.StringO object at 0x038CDAC0>'
p2661
asbasbasbag49
(g65
g51
NtRp2662
(dp2663
g54
(dp2664
sg63
g2193
sg56
(lp2665
g49
(g70
g51
NtRp2666
(dp2667
g54
(dp2668
g74
g75
ssg63
g2662
sg56
(lp2669
S'wsgi.multiprocess'
p2670
asbag49
(g70
g51
NtRp2671
(dp2672
g54
(dp2673
g81
g82
ssg63
g2662
sg56
(lp2674
S':'
asbag49
(g70
g51
NtRp2675
(dp2676
g54
(dp2677
sg63
g2662
sg56
(lp2678
g49
(g50
g51
NtRp2679
(dp2680
g54
(dp2681
g62
I3
ssg63
g2675
sg56
(lp2682
g92
asbasbasbag49
(g65
g51
NtRp2683
(dp2684
g54
(dp2685
sg63
g2193
sg56
(lp2686
g49
(g70
g51
NtRp2687
(dp2688
g54
(dp2689
g74
g75
ssg63
g2683
sg56
(lp2690
S'wsgi.multithread'
p2691
asbag49
(g70
g51
NtRp2692
(dp2693
g54
(dp2694
g81
g82
ssg63
g2683
sg56
(lp2695
S':'
asbag49
(g70
g51
NtRp2696
(dp2697
g54
(dp2698
sg63
g2683
sg56
(lp2699
g49
(g50
g51
NtRp2700
(dp2701
g54
(dp2702
g62
I3
ssg63
g2696
sg56
(lp2703
g1444
asbasbasbag49
(g65
g51
NtRp2704
(dp2705
g54
(dp2706
sg63
g2193
sg56
(lp2707
g49
(g70
g51
NtRp2708
(dp2709
g54
(dp2710
g74
g75
ssg63
g2704
sg56
(lp2711
S'wsgi.run_once'
p2712
asbag49
(g70
g51
NtRp2713
(dp2714
g54
(dp2715
g81
g82
ssg63
g2704
sg56
(lp2716
S':'
asbag49
(g70
g51
NtRp2717
(dp2718
g54
(dp2719
sg63
g2704
sg56
(lp2720
g49
(g50
g51
NtRp2721
(dp2722
g54
(dp2723
g62
I3
ssg63
g2717
sg56
(lp2724
g92
asbasbasbag49
(g65
g51
NtRp2725
(dp2726
g54
(dp2727
sg63
g2193
sg56
(lp2728
g49
(g70
g51
NtRp2729
(dp2730
g54
(dp2731
g74
g75
ssg63
g2725
sg56
(lp2732
S'wsgi.url_scheme'
p2733
asbag49
(g70
g51
NtRp2734
(dp2735
g54
(dp2736
g81
g82
ssg63
g2725
sg56
(lp2737
S':'
asbag49
(g70
g51
NtRp2738
(dp2739
g54
(dp2740
sg63
g2725
sg56
(lp2741
g49
(g50
g51
NtRp2742
(dp2743
g54
(dp2744
g62
I3
ssg63
g2738
sg56
(lp2745
g1487
asbasbasbag49
(g65
g51
NtRp2746
(dp2747
g54
(dp2748
sg63
g2193
sg56
(lp2749
g49
(g70
g51
NtRp2750
(dp2751
g54
(dp2752
g74
g75
ssg63
g2746
sg56
(lp2753
S'wsgi.version'
p2754
asbag49
(g70
g51
NtRp2755
(dp2756
g54
(dp2757
g81
g82
ssg63
g2746
sg56
(lp2758
S':'
asbag49
(g70
g51
NtRp2759
(dp2760
g54
(dp2761
sg63
g2746
sg56
(lp2762
g49
(g50
g51
NtRp2763
(dp2764
g54
(dp2765
g62
I3
ssg63
g2759
sg56
(lp2766
S'1'
asbasbasbasbasbasbasbasbasbasbasbasbasbsS'frames'
p2767
(lp2768
(dp2769
S'file'
p2770
S'C:\\Documents and Settings\\Guest\\Desktop\\web2py_win\\web2py\\gluon\\restricted.py'
p2771
sS'dump'
p2772
(dp2773
sS'lnum'
p2774
I205
sS'lines'
p2775
(dp2776
sS'call'
p2777
S'(code=\'import datetime, socket, os, sys\\nfrom ConfigPars...rted %s into taxon: %s" % (syn, i)\\n    \\n        \\n\', environment={\'A\': <class \'gluon.html.A\'>, \'Auth\': <class \'gluon.tools.Auth\'>, \'B\': <class \'gluon.html.B\'>, \'BEAUTIFY\': <class \'gluon.html.BEAUTIFY\'>, \'BODY\': <class \'gluon.html.BODY\'>, \'BR\': <class \'gluon.html.BR\'>, \'BUTTON\': <class \'gluon.html.BUTTON\'>, \'CAT\': <class \'gluon.html.CAT\'>, \'CENTER\': <class \'gluon.html.CENTER\'>, \'CLEANUP\': <class \'gluon.validators.CLEANUP\'>, ...}, layer=r\'C:\\Documents and Settings\\Guest\\Desktop\\web2py_win\\web2py\\applications\\Phylografter\\models\\db.py\')'
p2778
sS'func'
p2779
S'restricted'
p2780
sa(dp2781
g2770
S'C:\\Documents and Settings\\Guest\\Desktop\\web2py_win\\web2py\\applications\\Phylografter\\models\\db.py'
p2782
sg2772
(dp2783
sg2774
I77
sg2775
(dp2784
I72
S'#########################################################################'
p2785
sI73
S''
sI74
S'crud.settings.auth = None                      # =auth to enforce authorization on crud'
p2786
sI75
S''
sI76
S'# from http://www.web2pyslices.com/main/slices/take_slice/8'
p2787
sI77
S"clienttools = local_import('clienttools')"
p2788
sI78
S'page = clienttools.PageManager(globals())'
p2789
sI79
S'event = clienttools.EventManager(page)'
p2790
sI80
S'js = clienttools.ScriptManager(page) # javascript helpers'
p2791
sI81
S"jq = clienttools.JQuery # don't instantiate, just to shorten"
p2792
ssg2777
S'()'
p2793
sg2779
S'<module>'
p2794
sa(dp2795
g2770
S'C:\\Documents and Settings\\Guest\\Desktop\\web2py_win\\web2py\\gluon\\compileapp.py'
p2796
sg2772
(dp2797
sg2774
I405
sg2775
(dp2798
sg2777
S"(name='clienttools', reload=False, app='Phylografter')"
p2799
sg2779
S'<lambda>'
p2800
sa(dp2801
g2770
S'C:\\Documents and Settings\\Guest\\Desktop\\web2py_win\\web2py\\gluon\\compileapp.py'
p2802
sg2772
(dp2803
sg2774
I324
sg2775
(dp2804
sg2777
S"(name='applications.Phylografter.modules.clienttools', reload_force=False, app='Phylografter')"
p2805
sg2779
S'local_import_aux'
p2806
sa(dp2807
g2770
S'C:\\Documents and Settings\\Guest\\Desktop\\web2py_win\\web2py\\gluon\\custom_import.py'
p2808
sg2772
(dp2809
sg2774
I293
sg2775
(dp2810
sg2777
S"(self=<gluon.custom_import._Web2pyImporter object at 0x0180D2B0>, name='applications.Phylografter.modules.clienttools', globals={}, locals={}, fromlist=[], level=-1)"
p2811
sg2779
S'__call__'
p2812
sa(dp2813
g2770
S'C:\\Documents and Settings\\Guest\\Desktop\\web2py_win\\web2py\\gluon\\custom_import.py'
p2814
sg2772
(dp2815
sg2774
I78
sg2775
(dp2816
sg2777
S"(self=<gluon.custom_import._Web2pyImporter object at 0x0180D2B0>, name='applications.Phylografter.modules.clienttools', globals={}, locals={}, fromlist=[], level=-1)"
p2817
sg2779
g2812
sasS'pyver'
p2818
S'Python 2.5.4: C:\\Documents and Settings\\Guest\\Desktop\\web2py_win\\web2py\\web2py.exe'
p2819
sS'session'
p2820
g49
(g50
g51
NtRp2821
(dp2822
g54
(dp2823
sg56
(lp2824
g49
(g58
g51
NtRp2825
(dp2826
g54
(dp2827
g62
I5
ssg63
Nsg56
(lp2828
sbasbsS'etype'
p2829
S"<type 'exceptions.ImportError'>"
p2830
sS'date'
p2831
S'Wed Jun 13 12:36:08 2012'
p2832
sS'response'
p2833
g49
(g50
g51
NtRp2834
(dp2835
g54
(dp2836
sg56
(lp2837
g49
(g58
g51
NtRp2838
(dp2839
g54
(dp2840
g62
I5
ssg63
Nsg56
(lp2841
g49
(g65
g51
NtRp2842
(dp2843
g54
(dp2844
sg63
g2838
sg56
(lp2845
g49
(g70
g51
NtRp2846
(dp2847
g54
(dp2848
g74
g75
ssg63
g2842
sg56
(lp2849
g147
asbag49
(g70
g51
NtRp2850
(dp2851
g54
(dp2852
g81
g82
ssg63
g2842
sg56
(lp2853
S':'
asbag49
(g70
g51
NtRp2854
(dp2855
g54
(dp2856
sg63
g2842
sg56
(lp2857
g49
(g50
g51
NtRp2858
(dp2859
g54
(dp2860
g62
I5
ssg63
g2854
sg56
(lp2861
S'<cStringIO.StringO object at 0x03827BE0>'
p2862
asbasbasbag49
(g65
g51
NtRp2863
(dp2864
g54
(dp2865
sg63
g2838
sg56
(lp2866
g49
(g70
g51
NtRp2867
(dp2868
g54
(dp2869
g74
g75
ssg63
g2863
sg56
(lp2870
g213
asbag49
(g70
g51
NtRp2871
(dp2872
g54
(dp2873
g81
g82
ssg63
g2863
sg56
(lp2874
S':'
asbag49
(g70
g51
NtRp2875
(dp2876
g54
(dp2877
sg63
g2863
sg56
(lp2878
g49
(g50
g51
NtRp2879
(dp2880
g54
(dp2881
g62
I5
ssg63
g2875
sg56
(lp2882
g49
(g58
g51
NtRp2883
(dp2884
g54
(dp2885
g62
I4
ssg63
Nsg56
(lp2886
g49
(g65
g51
NtRp2887
(dp2888
g54
(dp2889
sg63
g2883
sg56
(lp2890
g49
(g70
g51
NtRp2891
(dp2892
g54
(dp2893
g74
g75
ssg63
g2887
sg56
(lp2894
S'session_id_phylografter'
p2895
asbag49
(g70
g51
NtRp2896
(dp2897
g54
(dp2898
g81
g82
ssg63
g2887
sg56
(lp2899
S':'
asbag49
(g70
g51
NtRp2900
(dp2901
g54
(dp2902
sg63
g2887
sg56
(lp2903
g49
(g50
g51
NtRp2904
(dp2905
g54
(dp2906
g62
I4
ssg63
g2900
sg56
(lp2907
g49
(g58
g51
NtRp2908
(dp2909
g54
(dp2910
g62
I3
ssg63
Nsg56
(lp2911
g49
(g65
g51
NtRp2912
(dp2913
g54
(dp2914
sg63
g2908
sg56
(lp2915
g49
(g70
g51
NtRp2916
(dp2917
g54
(dp2918
g74
g75
ssg63
g2912
sg56
(lp2919
g263
asbag49
(g70
g51
NtRp2920
(dp2921
g54
(dp2922
g81
g82
ssg63
g2912
sg56
(lp2923
S':'
asbag49
(g70
g51
NtRp2924
(dp2925
g54
(dp2926
sg63
g2912
sg56
(lp2927
g49
(g50
g51
NtRp2928
(dp2929
g54
(dp2930
g62
I3
ssg63
g2924
sg56
(lp2931
S''
asbasbasbag49
(g65
g51
NtRp2932
(dp2933
g54
(dp2934
sg63
g2908
sg56
(lp2935
g49
(g70
g51
NtRp2936
(dp2937
g54
(dp2938
g74
g75
ssg63
g2932
sg56
(lp2939
g284
asbag49
(g70
g51
NtRp2940
(dp2941
g54
(dp2942
g81
g82
ssg63
g2932
sg56
(lp2943
S':'
asbag49
(g70
g51
NtRp2944
(dp2945
g54
(dp2946
sg63
g2932
sg56
(lp2947
g49
(g50
g51
NtRp2948
(dp2949
g54
(dp2950
g62
I3
ssg63
g2944
sg56
(lp2951
S''
asbasbasbag49
(g65
g51
NtRp2952
(dp2953
g54
(dp2954
sg63
g2908
sg56
(lp2955
g49
(g70
g51
NtRp2956
(dp2957
g54
(dp2958
g74
g75
ssg63
g2952
sg56
(lp2959
g305
asbag49
(g70
g51
NtRp2960
(dp2961
g54
(dp2962
g81
g82
ssg63
g2952
sg56
(lp2963
S':'
asbag49
(g70
g51
NtRp2964
(dp2965
g54
(dp2966
sg63
g2952
sg56
(lp2967
g49
(g50
g51
NtRp2968
(dp2969
g54
(dp2970
g62
I3
ssg63
g2964
sg56
(lp2971
S''
asbasbasbag49
(g65
g51
NtRp2972
(dp2973
g54
(dp2974
sg63
g2908
sg56
(lp2975
g49
(g70
g51
NtRp2976
(dp2977
g54
(dp2978
g74
g75
ssg63
g2972
sg56
(lp2979
g326
asbag49
(g70
g51
NtRp2980
(dp2981
g54
(dp2982
g81
g82
ssg63
g2972
sg56
(lp2983
S':'
asbag49
(g70
g51
NtRp2984
(dp2985
g54
(dp2986
sg63
g2972
sg56
(lp2987
g49
(g50
g51
NtRp2988
(dp2989
g54
(dp2990
g62
I3
ssg63
g2984
sg56
(lp2991
S''
asbasbasbag49
(g65
g51
NtRp2992
(dp2993
g54
(dp2994
sg63
g2908
sg56
(lp2995
g49
(g70
g51
NtRp2996
(dp2997
g54
(dp2998
g74
g75
ssg63
g2992
sg56
(lp2999
g347
asbag49
(g70
g51
NtRp3000
(dp3001
g54
(dp3002
g81
g82
ssg63
g2992
sg56
(lp3003
S':'
asbag49
(g70
g51
NtRp3004
(dp3005
g54
(dp3006
sg63
g2992
sg56
(lp3007
g49
(g50
g51
NtRp3008
(dp3009
g54
(dp3010
g62
I3
ssg63
g3004
sg56
(lp3011
S'/'
asbasbasbag49
(g65
g51
NtRp3012
(dp3013
g54
(dp3014
sg63
g2908
sg56
(lp3015
g49
(g70
g51
NtRp3016
(dp3017
g54
(dp3018
g74
g75
ssg63
g3012
sg56
(lp3019
g368
asbag49
(g70
g51
NtRp3020
(dp3021
g54
(dp3022
g81
g82
ssg63
g3012
sg56
(lp3023
S':'
asbag49
(g70
g51
NtRp3024
(dp3025
g54
(dp3026
sg63
g3012
sg56
(lp3027
g49
(g50
g51
NtRp3028
(dp3029
g54
(dp3030
g62
I3
ssg63
g3024
sg56
(lp3031
S''
asbasbasbag49
(g65
g51
NtRp3032
(dp3033
g54
(dp3034
sg63
g2908
sg56
(lp3035
g49
(g70
g51
NtRp3036
(dp3037
g54
(dp3038
g74
g75
ssg63
g3032
sg56
(lp3039
g389
asbag49
(g70
g51
NtRp3040
(dp3041
g54
(dp3042
g81
g82
ssg63
g3032
sg56
(lp3043
S':'
asbag49
(g70
g51
NtRp3044
(dp3045
g54
(dp3046
sg63
g3032
sg56
(lp3047
g49
(g50
g51
NtRp3048
(dp3049
g54
(dp3050
g62
I3
ssg63
g3044
sg56
(lp3051
S''
asbasbasbasbasbasbasbasbasbasbasbag49
(g65
g51
NtRp3052
(dp3053
g54
(dp3054
sg63
g2838
sg56
(lp3055
g49
(g70
g51
NtRp3056
(dp3057
g54
(dp3058
g74
g75
ssg63
g3052
sg56
(lp3059
S'delimiters'
p3060
asbag49
(g70
g51
NtRp3061
(dp3062
g54
(dp3063
g81
g82
ssg63
g3052
sg56
(lp3064
S':'
asbag49
(g70
g51
NtRp3065
(dp3066
g54
(dp3067
sg63
g3052
sg56
(lp3068
g49
(g50
g51
NtRp3069
(dp3070
g54
(dp3071
g62
I5
ssg63
g3065
sg56
(lp3072
g49
(g58
g51
NtRp3073
(dp3074
g54
(dp3075
g62
I4
ssg63
Nsg56
(lp3076
g49
(g65
g51
NtRp3077
(dp3078
g54
(dp3079
sg63
g3073
sg56
(lp3080
g49
(g70
g51
NtRp3081
(dp3082
g54
(dp3083
sg63
g3077
sg56
(lp3084
g49
(g50
g51
NtRp3085
(dp3086
g54
(dp3087
g62
I4
ssg63
g3081
sg56
(lp3088
S'{{'
p3089
asbasbasbag49
(g65
g51
NtRp3090
(dp3091
g54
(dp3092
sg63
g3073
sg56
(lp3093
g49
(g70
g51
NtRp3094
(dp3095
g54
(dp3096
sg63
g3090
sg56
(lp3097
g49
(g50
g51
NtRp3098
(dp3099
g54
(dp3100
g62
I4
ssg63
g3094
sg56
(lp3101
S'}}'
p3102
asbasbasbasbasbasbasbag49
(g65
g51
NtRp3103
(dp3104
g54
(dp3105
sg63
g2838
sg56
(lp3106
g49
(g70
g51
NtRp3107
(dp3108
g54
(dp3109
g74
g75
ssg63
g3103
sg56
(lp3110
S'files'
p3111
asbag49
(g70
g51
NtRp3112
(dp3113
g54
(dp3114
g81
g82
ssg63
g3103
sg56
(lp3115
S':'
asbag49
(g70
g51
NtRp3116
(dp3117
g54
(dp3118
sg63
g3103
sg56
(lp3119
g49
(g50
g51
NtRp3120
(dp3121
g54
(dp3122
g62
I5
ssg63
g3116
sg56
(lp3123
g49
(g58
g51
NtRp3124
(dp3125
g54
(dp3126
g62
I4
ssg63
Nsg56
(lp3127
sbasbasbasbag49
(g65
g51
NtRp3128
(dp3129
g54
(dp3130
sg63
g2838
sg56
(lp3131
g49
(g70
g51
NtRp3132
(dp3133
g54
(dp3134
g74
g75
ssg63
g3128
sg56
(lp3135
S'flash'
p3136
asbag49
(g70
g51
NtRp3137
(dp3138
g54
(dp3139
g81
g82
ssg63
g3128
sg56
(lp3140
S':'
asbag49
(g70
g51
NtRp3141
(dp3142
g54
(dp3143
sg63
g3128
sg56
(lp3144
g49
(g50
g51
NtRp3145
(dp3146
g54
(dp3147
g62
I5
ssg63
g3141
sg56
(lp3148
S''
asbasbasbag49
(g65
g51
NtRp3149
(dp3150
g54
(dp3151
sg63
g2838
sg56
(lp3152
g49
(g70
g51
NtRp3153
(dp3154
g54
(dp3155
g74
g75
ssg63
g3149
sg56
(lp3156
S'generic_patterns'
p3157
asbag49
(g70
g51
NtRp3158
(dp3159
g54
(dp3160
g81
g82
ssg63
g3149
sg56
(lp3161
S':'
asbag49
(g70
g51
NtRp3162
(dp3163
g54
(dp3164
sg63
g3149
sg56
(lp3165
g49
(g50
g51
NtRp3166
(dp3167
g54
(dp3168
g62
I5
ssg63
g3162
sg56
(lp3169
g49
(g58
g51
NtRp3170
(dp3171
g54
(dp3172
g62
I4
ssg63
Nsg56
(lp3173
sbasbasbasbag49
(g65
g51
NtRp3174
(dp3175
g54
(dp3176
sg63
g2838
sg56
(lp3177
g49
(g70
g51
NtRp3178
(dp3179
g54
(dp3180
g74
g75
ssg63
g3174
sg56
(lp3181
S'headers'
p3182
asbag49
(g70
g51
NtRp3183
(dp3184
g54
(dp3185
g81
g82
ssg63
g3174
sg56
(lp3186
S':'
asbag49
(g70
g51
NtRp3187
(dp3188
g54
(dp3189
sg63
g3174
sg56
(lp3190
g49
(g50
g51
NtRp3191
(dp3192
g54
(dp3193
g62
I5
ssg63
g3187
sg56
(lp3194
g49
(g58
g51
NtRp3195
(dp3196
g54
(dp3197
g62
I4
ssg63
Nsg56
(lp3198
g49
(g65
g51
NtRp3199
(dp3200
g54
(dp3201
sg63
g3195
sg56
(lp3202
g49
(g70
g51
NtRp3203
(dp3204
g54
(dp3205
g74
g75
ssg63
g3199
sg56
(lp3206
S'Cache-Control'
p3207
asbag49
(g70
g51
NtRp3208
(dp3209
g54
(dp3210
g81
g82
ssg63
g3199
sg56
(lp3211
S':'
asbag49
(g70
g51
NtRp3212
(dp3213
g54
(dp3214
sg63
g3199
sg56
(lp3215
g49
(g50
g51
NtRp3216
(dp3217
g54
(dp3218
g62
I4
ssg63
g3212
sg56
(lp3219
S'no-store, no-cache, must-revalidate, post-check=0, pre-check=0'
p3220
asbasbasbag49
(g65
g51
NtRp3221
(dp3222
g54
(dp3223
sg63
g3195
sg56
(lp3224
g49
(g70
g51
NtRp3225
(dp3226
g54
(dp3227
g74
g75
ssg63
g3221
sg56
(lp3228
S'Content-Type'
p3229
asbag49
(g70
g51
NtRp3230
(dp3231
g54
(dp3232
g81
g82
ssg63
g3221
sg56
(lp3233
S':'
asbag49
(g70
g51
NtRp3234
(dp3235
g54
(dp3236
sg63
g3221
sg56
(lp3237
g49
(g50
g51
NtRp3238
(dp3239
g54
(dp3240
g62
I4
ssg63
g3234
sg56
(lp3241
S'text/html; charset=utf-8'
p3242
asbasbasbag49
(g65
g51
NtRp3243
(dp3244
g54
(dp3245
sg63
g3195
sg56
(lp3246
g49
(g70
g51
NtRp3247
(dp3248
g54
(dp3249
g74
g75
ssg63
g3243
sg56
(lp3250
S'Expires'
p3251
asbag49
(g70
g51
NtRp3252
(dp3253
g54
(dp3254
g81
g82
ssg63
g3243
sg56
(lp3255
S':'
asbag49
(g70
g51
NtRp3256
(dp3257
g54
(dp3258
sg63
g3243
sg56
(lp3259
g49
(g50
g51
NtRp3260
(dp3261
g54
(dp3262
g62
I4
ssg63
g3256
sg56
(lp3263
S'Wed, 13 Jun 2012 17:36:08 GMT'
p3264
asbasbasbag49
(g65
g51
NtRp3265
(dp3266
g54
(dp3267
sg63
g3195
sg56
(lp3268
g49
(g70
g51
NtRp3269
(dp3270
g54
(dp3271
g74
g75
ssg63
g3265
sg56
(lp3272
S'Pragma'
p3273
asbag49
(g70
g51
NtRp3274
(dp3275
g54
(dp3276
g81
g82
ssg63
g3265
sg56
(lp3277
S':'
asbag49
(g70
g51
NtRp3278
(dp3279
g54
(dp3280
sg63
g3265
sg56
(lp3281
g49
(g50
g51
NtRp3282
(dp3283
g54
(dp3284
g62
I4
ssg63
g3278
sg56
(lp3285
S'no-cache'
p3286
asbasbasbag49
(g65
g51
NtRp3287
(dp3288
g54
(dp3289
sg63
g3195
sg56
(lp3290
g49
(g70
g51
NtRp3291
(dp3292
g54
(dp3293
g74
g75
ssg63
g3287
sg56
(lp3294
S'X-Powered-By'
p3295
asbag49
(g70
g51
NtRp3296
(dp3297
g54
(dp3298
g81
g82
ssg63
g3287
sg56
(lp3299
S':'
asbag49
(g70
g51
NtRp3300
(dp3301
g54
(dp3302
sg63
g3287
sg56
(lp3303
g49
(g50
g51
NtRp3304
(dp3305
g54
(dp3306
g62
I4
ssg63
g3300
sg56
(lp3307
S'web2py'
p3308
asbasbasbasbasbasbasbag49
(g65
g51
NtRp3309
(dp3310
g54
(dp3311
sg63
g2838
sg56
(lp3312
g49
(g70
g51
NtRp3313
(dp3314
g54
(dp3315
g74
g75
ssg63
g3309
sg56
(lp3316
S'menu'
p3317
asbag49
(g70
g51
NtRp3318
(dp3319
g54
(dp3320
g81
g82
ssg63
g3309
sg56
(lp3321
S':'
asbag49
(g70
g51
NtRp3322
(dp3323
g54
(dp3324
sg63
g3309
sg56
(lp3325
g49
(g50
g51
NtRp3326
(dp3327
g54
(dp3328
g62
I5
ssg63
g3322
sg56
(lp3329
g49
(g58
g51
NtRp3330
(dp3331
g54
(dp3332
g62
I4
ssg63
Nsg56
(lp3333
sbasbasbasbag49
(g65
g51
NtRp3334
(dp3335
g54
(dp3336
sg63
g2838
sg56
(lp3337
g49
(g70
g51
NtRp3338
(dp3339
g54
(dp3340
g74
g75
ssg63
g3334
sg56
(lp3341
S'meta'
p3342
asbag49
(g70
g51
NtRp3343
(dp3344
g54
(dp3345
g81
g82
ssg63
g3334
sg56
(lp3346
S':'
asbag49
(g70
g51
NtRp3347
(dp3348
g54
(dp3349
sg63
g3334
sg56
(lp3350
g49
(g50
g51
NtRp3351
(dp3352
g54
(dp3353
g62
I5
ssg63
g3347
sg56
(lp3354
g49
(g58
g51
NtRp3355
(dp3356
g54
(dp3357
g62
I4
ssg63
Nsg56
(lp3358
sbasbasbasbag49
(g65
g51
NtRp3359
(dp3360
g54
(dp3361
sg63
g2838
sg56
(lp3362
g49
(g70
g51
NtRp3363
(dp3364
g54
(dp3365
g74
g75
ssg63
g3359
sg56
(lp3366
S'postprocessing'
p3367
asbag49
(g70
g51
NtRp3368
(dp3369
g54
(dp3370
g81
g82
ssg63
g3359
sg56
(lp3371
S':'
asbag49
(g70
g51
NtRp3372
(dp3373
g54
(dp3374
sg63
g3359
sg56
(lp3375
g49
(g50
g51
NtRp3376
(dp3377
g54
(dp3378
g62
I5
ssg63
g3372
sg56
(lp3379
g49
(g58
g51
NtRp3380
(dp3381
g54
(dp3382
g62
I4
ssg63
Nsg56
(lp3383
sbasbasbasbag49
(g65
g51
NtRp3384
(dp3385
g54
(dp3386
sg63
g2838
sg56
(lp3387
g49
(g70
g51
NtRp3388
(dp3389
g54
(dp3390
g74
g75
ssg63
g3384
sg56
(lp3391
S'session_filename'
p3392
asbag49
(g70
g51
NtRp3393
(dp3394
g54
(dp3395
g81
g82
ssg63
g3384
sg56
(lp3396
S':'
asbag49
(g70
g51
NtRp3397
(dp3398
g54
(dp3399
sg63
g3384
sg56
(lp3400
g49
(g50
g51
NtRp3401
(dp3402
g54
(dp3403
g62
I5
ssg63
g3397
sg56
(lp3404
S'C:\\Documents and Settings\\Guest\\Desktop\\web2py_win\\web2py\\applications\\Phylografter\\sessions\\127.0.0.1-cb5619b4-0467-41e7-8d05-532f0466a9f8'
p3405
asbasbasbag49
(g65
g51
NtRp3406
(dp3407
g54
(dp3408
sg63
g2838
sg56
(lp3409
g49
(g70
g51
NtRp3410
(dp3411
g54
(dp3412
g74
g75
ssg63
g3406
sg56
(lp3413
S'session_id'
p3414
asbag49
(g70
g51
NtRp3415
(dp3416
g54
(dp3417
g81
g82
ssg63
g3406
sg56
(lp3418
S':'
asbag49
(g70
g51
NtRp3419
(dp3420
g54
(dp3421
sg63
g3406
sg56
(lp3422
g49
(g50
g51
NtRp3423
(dp3424
g54
(dp3425
g62
I5
ssg63
g3419
sg56
(lp3426
S'127.0.0.1-cb5619b4-0467-41e7-8d05-532f0466a9f8'
p3427
asbasbasbag49
(g65
g51
NtRp3428
(dp3429
g54
(dp3430
sg63
g2838
sg56
(lp3431
g49
(g70
g51
NtRp3432
(dp3433
g54
(dp3434
g74
g75
ssg63
g3428
sg56
(lp3435
S'session_id_name'
p3436
asbag49
(g70
g51
NtRp3437
(dp3438
g54
(dp3439
g81
g82
ssg63
g3428
sg56
(lp3440
S':'
asbag49
(g70
g51
NtRp3441
(dp3442
g54
(dp3443
sg63
g3428
sg56
(lp3444
g49
(g50
g51
NtRp3445
(dp3446
g54
(dp3447
g62
I5
ssg63
g3441
sg56
(lp3448
g2895
asbasbasbag49
(g65
g51
NtRp3449
(dp3450
g54
(dp3451
sg63
g2838
sg56
(lp3452
g49
(g70
g51
NtRp3453
(dp3454
g54
(dp3455
g74
g75
ssg63
g3449
sg56
(lp3456
S'session_new'
p3457
asbag49
(g70
g51
NtRp3458
(dp3459
g54
(dp3460
g81
g82
ssg63
g3449
sg56
(lp3461
S':'
asbag49
(g70
g51
NtRp3462
(dp3463
g54
(dp3464
sg63
g3449
sg56
(lp3465
g49
(g50
g51
NtRp3466
(dp3467
g54
(dp3468
g62
I5
ssg63
g3462
sg56
(lp3469
g1444
asbasbasbag49
(g65
g51
NtRp3470
(dp3471
g54
(dp3472
sg63
g2838
sg56
(lp3473
g49
(g70
g51
NtRp3474
(dp3475
g54
(dp3476
g74
g75
ssg63
g3470
sg56
(lp3477
S'status'
p3478
asbag49
(g70
g51
NtRp3479
(dp3480
g54
(dp3481
g81
g82
ssg63
g3470
sg56
(lp3482
S':'
asbag49
(g70
g51
NtRp3483
(dp3484
g54
(dp3485
sg63
g3470
sg56
(lp3486
g49
(g50
g51
NtRp3487
(dp3488
g54
(dp3489
g62
I5
ssg63
g3483
sg56
(lp3490
S'200'
p3491
asbasbasbag49
(g65
g51
NtRp3492
(dp3493
g54
(dp3494
sg63
g2838
sg56
(lp3495
g49
(g70
g51
NtRp3496
(dp3497
g54
(dp3498
g74
g75
ssg63
g3492
sg56
(lp3499
g2108
asbag49
(g70
g51
NtRp3500
(dp3501
g54
(dp3502
g81
g82
ssg63
g3492
sg56
(lp3503
S':'
asbag49
(g70
g51
NtRp3504
(dp3505
g54
(dp3506
sg63
g3492
sg56
(lp3507
g49
(g50
g51
NtRp3508
(dp3509
g54
(dp3510
g62
I5
ssg63
g3504
sg56
(lp3511
g2121
asbasbasbag49
(g65
g51
NtRp3512
(dp3513
g54
(dp3514
sg63
g2838
sg56
(lp3515
g49
(g70
g51
NtRp3516
(dp3517
g54
(dp3518
g74
g75
ssg63
g3512
sg56
(lp3519
S'view'
p3520
asbag49
(g70
g51
NtRp3521
(dp3522
g54
(dp3523
g81
g82
ssg63
g3512
sg56
(lp3524
S':'
asbag49
(g70
g51
NtRp3525
(dp3526
g54
(dp3527
sg63
g3512
sg56
(lp3528
g49
(g50
g51
NtRp3529
(dp3530
g54
(dp3531
g62
I5
ssg63
g3525
sg56
(lp3532
S'default/index.html'
p3533
asbasbasbasbasbsS'locals'
p3534
(dp3535
S'fromlist'
p3536
S'[]'
p3537
sS'name'
p3538
S"'applications.Phylografter.modules.clienttools'"
p3539
sg62
S'-1'
p3540
sS'self'
p3541
S'<gluon.custom_import._Web2pyImporter object at 0x0180D2B0>'
p3542
sS'globals'
p3543
g39
sg3534
g39
sssS'traceback'
p3544
S'Traceback (most recent call last):\n  File "gluon/restricted.py", line 205, in restricted\n  File "C:\\Documents and Settings\\Guest\\Desktop\\web2py_win\\web2py\\applications\\Phylografter\\models\\db.py", line 77, in <module>\n  File "gluon/compileapp.py", line 405, in <lambda>\n  File "gluon/compileapp.py", line 324, in local_import_aux\n  File "gluon/custom_import.py", line 293, in __call__\n  File "gluon/custom_import.py", line 78, in __call__\nImportError: No module named Phylografter.modules.clienttools\n'
p3545
s.