(dp1
S'output'
p2
S"<class 'ConfigParser.NoSectionError'> No section: 'db'"
p3
sS'layer'
p4
S'C:\\Documents and Settings\\Guest\\Desktop\\web2py_win\\web2py\\applications\\Phylografter\\models\\db.py'
p5
sS'code'
p6
S'import datetime, socket, os, sys\nfrom ConfigParser import SafeConfigParser\n\ndefaults = dict(host="localhost", user="guest", password="guest", dbname="phylografter")\n\nconf = SafeConfigParser(defaults)\n\nuser = password = dbname = host = \'\'\n\n#db = DAL("sqlite://phylografter.db")\n#db = DAL("mysql://%s:%s@%s/%s" % (user, password, host, dbname), migrate=False ) \n\nif os.path.isfile("applications/%s/private/localconfig" % request.application):\n    conf.read("applications/%s/private/localconfig" % request.application)\n    host = conf.get("db", "host")\n    user = conf.get("db", "user")\n    password = conf.get("db", "password")\n    dbname = conf.get("db", "dbname")\n\nelse:\n    conf.read("applications/%s/private/config" % request.application)\n    host = conf.get("db", "host")\n    user = conf.get("db", "user")\n    password = conf.get("db", "password")\n    dbname = conf.get("db", "dbname")\n\ndb = DAL("mysql://%s:%s@%s/%s" % (user, password, host, dbname), migrate=False ) \n#db = DAL("mysql://%s:%s@%s/%s" % (user, password, host, dbname), migrate=False, fake_migrate_all=True, migrate_enabled=False ) \n\n\nfrom gluon.tools import *\n## mail = Mail()                    # mailer\nauth = Auth(globals(),db)           # authentication/authorization\ncrud = Crud(globals(),db)           # for CRUD helpers using auth\nservice = Service(globals())        # for json, xml, jsonrpc, xmlrpc, amfrpc\nplugins = PluginManager()\n\n## mail.settings.server = \'logging\' or \'smtp.gmail.com:587\'  # your SMTP server\n## mail.settings.sender = \'you@gmail.com\'         # your email\n## mail.settings.login = \'username:password\'      # your credentials or None\n## auth.settings.hmac_key = \'<your secret key>\'   # before define_tables()\nauth.define_tables( migrate=False )                           # creates all needed tables\n## auth.settings.mailer = mail                 # for user email verification\nauth.settings.registration_requires_verification = False\nauth.settings.registration_requires_approval = False\nauth.messages.verify_email = \'Click on the link http://\'+request.env.http_host+URL(r=request,c=\'default\',f=\'user\',args=[\'verify_email\'])+\'/%(key)s to verify your email\'\nauth.settings.reset_password_requires_verification = True\nauth.messages.reset_password = \'Click on the link http://\'+request.env.http_host+URL(r=request,c=\'default\',f=\'user\',args=[\'reset_password\'])+\'/%(key)s to reset your password\'\n\n#########################################################################\n## If you need to use OpenID, Facebook, MySpace, Twitter, Linkedin, etc.\n## register with janrain.com, uncomment and customize following\nhost = socket.gethostname()\nif host == "rickroll":\n    host = "www.reelab.net"\nelse:\n    host = "localhost:8000"\nfrom gluon.contrib.login_methods.rpx_account import RPXAccount\nauth.settings.actions_disabled=[\'register\',\'change_password\',\'request_reset_password\']\nauth.settings.login_form = RPXAccount(\n    request, api_key=\'9435bcb6253fa24c4680cbbd0d4e75a0accde8b3\',\n    domain=\'phylografter\',\n    url = "http://%s/%s/default/user/login" % (host, request.application)\n    )\n\nif request.controller==\'default\' and request.function==\'user\' and request.args(0)==\'login\':\n    auth.settings.login_next = session._next or URL(\'index\')\nelse:\n    session._next = request.env.path_info\n\n## other login methods are in gluon/contrib/login_methods\n#########################################################################\n\ncrud.settings.auth = None                      # =auth to enforce authorization on crud\n\n# from http://www.web2pyslices.com/main/slices/take_slice/8\nclienttools = local_import(\'clienttools\')\npage = clienttools.PageManager(globals())\nevent = clienttools.EventManager(page)\njs = clienttools.ScriptManager(page) # javascript helpers\njq = clienttools.JQuery # don\'t instantiate, just to shorten\n\ndefine_tables(db)\n\ndef delete_stree(i, otu=False):\n    rec = db.stree(i)\n    assert rec\n    snodes = db(db.snode.tree==i)\n    if otu:\n        q = ((db.snode.tree==db.stree.id)&\n             (db.snode.otu==db.otu.id)&\n             (db.stree.id==i))\n        otus = [ x.id for x in db(q).select(db.otu.id) ]\n        db(db.otu.id.belongs(otus)).delete()\n    snodes.delete()\n    rec.delete_record()\n\ndef upload_fasta(study, fname):\n    from Bio import SeqIO\n    study = db.study(int(study))\n    assert study\n    recs = SeqIO.parse(fname, "fasta")\n    \ndef insert_ncbi_node(taxid, email):\n    from ivy import genbank\n    genbank.email = email\n    d = genbank.fetchtax(taxid)\n    assert d\n    parent_taxid = int(d["LineageEx"][-1]["TaxId"])\n    t = db.ncbi_node\n    p = db(t.taxid==parent_taxid).select().first()\n    assert p\n    # make room for new node\n    b = p.back\n    db(t.back>=p.back).update(next=t.next+2, back=t.back+2)\n    name = d[\'ScientificName\']; rank = d[\'Rank\']\n    i = t.insert(taxid=taxid, name=name, rank=rank,\n                 next=b, back=b+1, parent=p.id)\n    print "Inserted %s into ncbi_node: %s" % (name, i)\n    #insert taxon record\n    q = (db.taxon.name==name)&(db.taxon.ncbi_taxid==taxid)\n    if not db(q).select().first():\n        i = db.taxon.insert(name=name, rank=rank, ncbi_taxid=taxid)\n        print "Inserted %s into taxon: %s" % (name, i)\n    if d[\'OtherNames\'] and d[\'OtherNames\'][\'GenbankSynonym\']:\n        for syn in d[\'OtherNames\'][\'GenbankSynonym\']:\n            q = (db.taxon.name==syn)&(db.taxon.ncbi_taxid==taxid)\n            if not db(q).select().first():\n                i = db.taxon.insert(name=syn, rank=rank, ncbi_taxid=taxid)\n                print "Inserted %s into taxon: %s" % (syn, i)\n    \n        \n'
p7
sS'snapshot'
p8
(dp9
S'exception'
p10
(dp11
S'__hash__'
p12
S"<method-wrapper '__hash__' of NoSectionError object at 0x01AC7468>"
p13
sS'__module__'
p14
S"'ConfigParser'"
p15
sS'__reduce_ex__'
p16
S'<built-in method __reduce_ex__ of NoSectionError object at 0x01AC7468>'
p17
sS'__getslice__'
p18
S"<method-wrapper '__getslice__' of NoSectionError object at 0x01AC7468>"
p19
sS'__getitem__'
p20
S"<method-wrapper '__getitem__' of NoSectionError object at 0x01AC7468>"
p21
sS'__setstate__'
p22
S'<built-in method __setstate__ of NoSectionError object at 0x01AC7468>'
p23
sS'__reduce__'
p24
S'<built-in method __reduce__ of NoSectionError object at 0x01AC7468>'
p25
sS'__str__'
p26
S"<bound method NoSectionError.__repr__ of No section: 'db'>"
p27
sS'args'
p28
S'("No section: \'db\'",)'
p29
sS'__getattribute__'
p30
S"<method-wrapper '__getattribute__' of NoSectionError object at 0x01AC7468>"
p31
sS'__class__'
p32
S"<class 'ConfigParser.NoSectionError'>"
p33
sS'section'
p34
S"'db'"
p35
sS'__delattr__'
p36
S"<method-wrapper '__delattr__' of NoSectionError object at 0x01AC7468>"
p37
sS'__repr__'
p38
S"<bound method NoSectionError.__repr__ of No section: 'db'>"
p39
sS'__setattr__'
p40
S"<method-wrapper '__setattr__' of NoSectionError object at 0x01AC7468>"
p41
sS'__dict__'
p42
S"{'section': 'db'}"
p43
sS'__weakref__'
p44
S'None'
p45
sS'__doc__'
p46
S"'Raised when no section matches a requested option.'"
p47
sS'__init__'
p48
S"<bound method NoSectionError.__init__ of No section: 'db'>"
p49
sS'__new__'
p50
S'<built-in method __new__ of type object at 0x1E1CCBE8>'
p51
ssS'evalue'
p52
S"No section: 'db'"
p53
sS'request'
p54
ccopy_reg
_reconstructor
p55
(cgluon.html
BEAUTIFY
p56
c__builtin__
object
p57
NtRp58
(dp59
S'attributes'
p60
(dp61
sS'components'
p62
(lp63
g55
(cgluon.html
TABLE
p64
g57
NtRp65
(dp66
g60
(dp67
S'level'
p68
I5
ssS'parent'
p69
Nsg62
(lp70
g55
(cgluon.html
TR
p71
g57
NtRp72
(dp73
g60
(dp74
sg69
g65
sg62
(lp75
g55
(cgluon.html
TD
p76
g57
NtRp77
(dp78
g60
(dp79
S'_style'
p80
S'font-weight:bold;vertical-align:top'
p81
ssg69
g72
sg62
(lp82
S'ajax'
p83
asbag55
(g76
g57
NtRp84
(dp85
g60
(dp86
S'_valign'
p87
S'top'
p88
ssg69
g72
sg62
(lp89
S':'
asbag55
(g76
g57
NtRp90
(dp91
g60
(dp92
sg69
g72
sg62
(lp93
g55
(g56
g57
NtRp94
(dp95
g60
(dp96
g68
I5
ssg69
g90
sg62
(lp97
S'False'
p98
asbasbasbag55
(g71
g57
NtRp99
(dp100
g60
(dp101
sg69
g65
sg62
(lp102
g55
(g76
g57
NtRp103
(dp104
g60
(dp105
g80
g81
ssg69
g99
sg62
(lp106
S'application'
p107
asbag55
(g76
g57
NtRp108
(dp109
g60
(dp110
g87
g88
ssg69
g99
sg62
(lp111
S':'
asbag55
(g76
g57
NtRp112
(dp113
g60
(dp114
sg69
g99
sg62
(lp115
g55
(g56
g57
NtRp116
(dp117
g60
(dp118
g68
I5
ssg69
g112
sg62
(lp119
S'Phylografter'
p120
asbasbasbag55
(g71
g57
NtRp121
(dp122
g60
(dp123
sg69
g65
sg62
(lp124
g55
(g76
g57
NtRp125
(dp126
g60
(dp127
g80
g81
ssg69
g121
sg62
(lp128
g28
asbag55
(g76
g57
NtRp129
(dp130
g60
(dp131
g87
g88
ssg69
g121
sg62
(lp132
S':'
asbag55
(g76
g57
NtRp133
(dp134
g60
(dp135
sg69
g121
sg62
(lp136
g55
(g56
g57
NtRp137
(dp138
g60
(dp139
g68
I5
ssg69
g133
sg62
(lp140
g55
(g64
g57
NtRp141
(dp142
g60
(dp143
g68
I4
ssg69
Nsg62
(lp144
sbasbasbasbag55
(g71
g57
NtRp145
(dp146
g60
(dp147
sg69
g65
sg62
(lp148
g55
(g76
g57
NtRp149
(dp150
g60
(dp151
g80
g81
ssg69
g145
sg62
(lp152
S'body'
p153
asbag55
(g76
g57
NtRp154
(dp155
g60
(dp156
g87
g88
ssg69
g145
sg62
(lp157
S':'
asbag55
(g76
g57
NtRp158
(dp159
g60
(dp160
sg69
g145
sg62
(lp161
g55
(g56
g57
NtRp162
(dp163
g60
(dp164
g68
I5
ssg69
g158
sg62
(lp165
S'<cStringIO.StringO object at 0x01A1EA60>'
p166
asbasbasbag55
(g71
g57
NtRp167
(dp168
g60
(dp169
sg69
g65
sg62
(lp170
g55
(g76
g57
NtRp171
(dp172
g60
(dp173
g80
g81
ssg69
g167
sg62
(lp174
S'client'
p175
asbag55
(g76
g57
NtRp176
(dp177
g60
(dp178
g87
g88
ssg69
g167
sg62
(lp179
S':'
asbag55
(g76
g57
NtRp180
(dp181
g60
(dp182
sg69
g167
sg62
(lp183
g55
(g56
g57
NtRp184
(dp185
g60
(dp186
g68
I5
ssg69
g180
sg62
(lp187
S'127.0.0.1'
p188
asbasbasbag55
(g71
g57
NtRp189
(dp190
g60
(dp191
sg69
g65
sg62
(lp192
g55
(g76
g57
NtRp193
(dp194
g60
(dp195
g80
g81
ssg69
g189
sg62
(lp196
S'controller'
p197
asbag55
(g76
g57
NtRp198
(dp199
g60
(dp200
g87
g88
ssg69
g189
sg62
(lp201
S':'
asbag55
(g76
g57
NtRp202
(dp203
g60
(dp204
sg69
g189
sg62
(lp205
g55
(g56
g57
NtRp206
(dp207
g60
(dp208
g68
I5
ssg69
g202
sg62
(lp209
S'default'
p210
asbasbasbag55
(g71
g57
NtRp211
(dp212
g60
(dp213
sg69
g65
sg62
(lp214
g55
(g76
g57
NtRp215
(dp216
g60
(dp217
g80
g81
ssg69
g211
sg62
(lp218
S'cookies'
p219
asbag55
(g76
g57
NtRp220
(dp221
g60
(dp222
g87
g88
ssg69
g211
sg62
(lp223
S':'
asbag55
(g76
g57
NtRp224
(dp225
g60
(dp226
sg69
g211
sg62
(lp227
g55
(g56
g57
NtRp228
(dp229
g60
(dp230
g68
I5
ssg69
g224
sg62
(lp231
g55
(g64
g57
NtRp232
(dp233
g60
(dp234
g68
I4
ssg69
Nsg62
(lp235
g55
(g71
g57
NtRp236
(dp237
g60
(dp238
sg69
g232
sg62
(lp239
g55
(g76
g57
NtRp240
(dp241
g60
(dp242
g80
g81
ssg69
g236
sg62
(lp243
S'session_id_welcome'
p244
asbag55
(g76
g57
NtRp245
(dp246
g60
(dp247
g87
g88
ssg69
g236
sg62
(lp248
S':'
asbag55
(g76
g57
NtRp249
(dp250
g60
(dp251
sg69
g236
sg62
(lp252
g55
(g56
g57
NtRp253
(dp254
g60
(dp255
g68
I4
ssg69
g249
sg62
(lp256
g55
(g64
g57
NtRp257
(dp258
g60
(dp259
g68
I3
ssg69
Nsg62
(lp260
g55
(g71
g57
NtRp261
(dp262
g60
(dp263
sg69
g257
sg62
(lp264
g55
(g76
g57
NtRp265
(dp266
g60
(dp267
g80
g81
ssg69
g261
sg62
(lp268
S'comment'
p269
asbag55
(g76
g57
NtRp270
(dp271
g60
(dp272
g87
g88
ssg69
g261
sg62
(lp273
S':'
asbag55
(g76
g57
NtRp274
(dp275
g60
(dp276
sg69
g261
sg62
(lp277
g55
(g56
g57
NtRp278
(dp279
g60
(dp280
g68
I3
ssg69
g274
sg62
(lp281
S''
asbasbasbag55
(g71
g57
NtRp282
(dp283
g60
(dp284
sg69
g257
sg62
(lp285
g55
(g76
g57
NtRp286
(dp287
g60
(dp288
g80
g81
ssg69
g282
sg62
(lp289
S'domain'
p290
asbag55
(g76
g57
NtRp291
(dp292
g60
(dp293
g87
g88
ssg69
g282
sg62
(lp294
S':'
asbag55
(g76
g57
NtRp295
(dp296
g60
(dp297
sg69
g282
sg62
(lp298
g55
(g56
g57
NtRp299
(dp300
g60
(dp301
g68
I3
ssg69
g295
sg62
(lp302
S''
asbasbasbag55
(g71
g57
NtRp303
(dp304
g60
(dp305
sg69
g257
sg62
(lp306
g55
(g76
g57
NtRp307
(dp308
g60
(dp309
g80
g81
ssg69
g303
sg62
(lp310
S'expires'
p311
asbag55
(g76
g57
NtRp312
(dp313
g60
(dp314
g87
g88
ssg69
g303
sg62
(lp315
S':'
asbag55
(g76
g57
NtRp316
(dp317
g60
(dp318
sg69
g303
sg62
(lp319
g55
(g56
g57
NtRp320
(dp321
g60
(dp322
g68
I3
ssg69
g316
sg62
(lp323
S''
asbasbasbag55
(g71
g57
NtRp324
(dp325
g60
(dp326
sg69
g257
sg62
(lp327
g55
(g76
g57
NtRp328
(dp329
g60
(dp330
g80
g81
ssg69
g324
sg62
(lp331
S'max-age'
p332
asbag55
(g76
g57
NtRp333
(dp334
g60
(dp335
g87
g88
ssg69
g324
sg62
(lp336
S':'
asbag55
(g76
g57
NtRp337
(dp338
g60
(dp339
sg69
g324
sg62
(lp340
g55
(g56
g57
NtRp341
(dp342
g60
(dp343
g68
I3
ssg69
g337
sg62
(lp344
S''
asbasbasbag55
(g71
g57
NtRp345
(dp346
g60
(dp347
sg69
g257
sg62
(lp348
g55
(g76
g57
NtRp349
(dp350
g60
(dp351
g80
g81
ssg69
g345
sg62
(lp352
S'path'
p353
asbag55
(g76
g57
NtRp354
(dp355
g60
(dp356
g87
g88
ssg69
g345
sg62
(lp357
S':'
asbag55
(g76
g57
NtRp358
(dp359
g60
(dp360
sg69
g345
sg62
(lp361
g55
(g56
g57
NtRp362
(dp363
g60
(dp364
g68
I3
ssg69
g358
sg62
(lp365
S''
asbasbasbag55
(g71
g57
NtRp366
(dp367
g60
(dp368
sg69
g257
sg62
(lp369
g55
(g76
g57
NtRp370
(dp371
g60
(dp372
g80
g81
ssg69
g366
sg62
(lp373
S'secure'
p374
asbag55
(g76
g57
NtRp375
(dp376
g60
(dp377
g87
g88
ssg69
g366
sg62
(lp378
S':'
asbag55
(g76
g57
NtRp379
(dp380
g60
(dp381
sg69
g366
sg62
(lp382
g55
(g56
g57
NtRp383
(dp384
g60
(dp385
g68
I3
ssg69
g379
sg62
(lp386
S''
asbasbasbag55
(g71
g57
NtRp387
(dp388
g60
(dp389
sg69
g257
sg62
(lp390
g55
(g76
g57
NtRp391
(dp392
g60
(dp393
g80
g81
ssg69
g387
sg62
(lp394
S'version'
p395
asbag55
(g76
g57
NtRp396
(dp397
g60
(dp398
g87
g88
ssg69
g387
sg62
(lp399
S':'
asbag55
(g76
g57
NtRp400
(dp401
g60
(dp402
sg69
g387
sg62
(lp403
g55
(g56
g57
NtRp404
(dp405
g60
(dp406
g68
I3
ssg69
g400
sg62
(lp407
S''
asbasbasbasbasbasbasbasbasbasbasbag55
(g71
g57
NtRp408
(dp409
g60
(dp410
sg69
g65
sg62
(lp411
g55
(g76
g57
NtRp412
(dp413
g60
(dp414
g80
g81
ssg69
g408
sg62
(lp415
S'env'
p416
asbag55
(g76
g57
NtRp417
(dp418
g60
(dp419
g87
g88
ssg69
g408
sg62
(lp420
S':'
asbag55
(g76
g57
NtRp421
(dp422
g60
(dp423
sg69
g408
sg62
(lp424
g55
(g56
g57
NtRp425
(dp426
g60
(dp427
g68
I5
ssg69
g421
sg62
(lp428
g55
(g64
g57
NtRp429
(dp430
g60
(dp431
g68
I4
ssg69
Nsg62
(lp432
g55
(g71
g57
NtRp433
(dp434
g60
(dp435
sg69
g429
sg62
(lp436
g55
(g76
g57
NtRp437
(dp438
g60
(dp439
g80
g81
ssg69
g433
sg62
(lp440
S'app_folders'
p441
asbag55
(g76
g57
NtRp442
(dp443
g60
(dp444
g87
g88
ssg69
g433
sg62
(lp445
S':'
asbag55
(g76
g57
NtRp446
(dp447
g60
(dp448
sg69
g433
sg62
(lp449
g55
(g56
g57
NtRp450
(dp451
g60
(dp452
g68
I4
ssg69
g446
sg62
(lp453
S"set(['C:\\\\Documents and Settings\\\\Guest\\\\Desktop\\\\web2py_win\\\\web2py\\\\applications\\\\Phylografter\\\\', 'C:\\\\Documents and Settings\\\\Guest\\\\Desktop\\\\web2py_win\\\\web2py\\\\applications\\\\welcome\\\\'])"
p454
asbasbasbag55
(g71
g57
NtRp455
(dp456
g60
(dp457
sg69
g429
sg62
(lp458
g55
(g76
g57
NtRp459
(dp460
g60
(dp461
g80
g81
ssg69
g455
sg62
(lp462
S'applications_parent'
p463
asbag55
(g76
g57
NtRp464
(dp465
g60
(dp466
g87
g88
ssg69
g455
sg62
(lp467
S':'
asbag55
(g76
g57
NtRp468
(dp469
g60
(dp470
sg69
g455
sg62
(lp471
g55
(g56
g57
NtRp472
(dp473
g60
(dp474
g68
I4
ssg69
g468
sg62
(lp475
S'C:\\Documents and Settings\\Guest\\Desktop\\web2py_win\\web2py'
p476
asbasbasbag55
(g71
g57
NtRp477
(dp478
g60
(dp479
sg69
g429
sg62
(lp480
g55
(g76
g57
NtRp481
(dp482
g60
(dp483
g80
g81
ssg69
g477
sg62
(lp484
S'cmd_args'
p485
asbag55
(g76
g57
NtRp486
(dp487
g60
(dp488
g87
g88
ssg69
g477
sg62
(lp489
S':'
asbag55
(g76
g57
NtRp490
(dp491
g60
(dp492
sg69
g477
sg62
(lp493
g55
(g56
g57
NtRp494
(dp495
g60
(dp496
g68
I4
ssg69
g490
sg62
(lp497
g55
(g64
g57
NtRp498
(dp499
g60
(dp500
g68
I3
ssg69
Nsg62
(lp501
sbasbasbasbag55
(g71
g57
NtRp502
(dp503
g60
(dp504
sg69
g429
sg62
(lp505
g55
(g76
g57
NtRp506
(dp507
g60
(dp508
g80
g81
ssg69
g502
sg62
(lp509
S'cmd_options'
p510
asbag55
(g76
g57
NtRp511
(dp512
g60
(dp513
g87
g88
ssg69
g502
sg62
(lp514
S':'
asbag55
(g76
g57
NtRp515
(dp516
g60
(dp517
sg69
g502
sg62
(lp518
g55
(g56
g57
NtRp519
(dp520
g60
(dp521
g68
I4
ssg69
g515
sg62
(lp522
S"<Values at 0x1879878: {'verbose': False, 'ip': '127.0.0.1', 'shutdown_timeout': 5, 'taskbar': False, 'nocron': False, 'pid_filename': 'httpserver.pid', 'maxthreads': None, 'softcron': False, 'server_name': 'fm-biosync-int1', 'bpython': False, 'nogui': False, 'port': 8000, 'extcron': False, 'debuglevel': 30, 'test': None, 'folder': 'C:\\\\Documents and Settings\\\\Guest\\\\Desktop\\\\web2py_win\\\\web2py', 'config': '', 'import_models': False, 'winservice': '', 'shell': None, 'run': '', 'log_filename': 'httpserver.log', 'args': [''], 'socket_timeout': 5, 'ssl_ca_certificate': None, 'scheduler': None, 'profiler_filename': None, 'ssl_private_key': '', 'password': '<ask>', 'request_queue_size': 5, 'ssl_certificate': '', 'cronjob': False, 'numthreads': None, 'quiet': False, 'interfaces': None, 'minthreads': None, 'timeout': 10, 'plain': False, 'nobanner': False}>"
p523
asbasbasbag55
(g71
g57
NtRp524
(dp525
g60
(dp526
sg69
g429
sg62
(lp527
g55
(g76
g57
NtRp528
(dp529
g60
(dp530
g80
g81
ssg69
g524
sg62
(lp531
S'db_sessions'
p532
asbag55
(g76
g57
NtRp533
(dp534
g60
(dp535
g87
g88
ssg69
g524
sg62
(lp536
S':'
asbag55
(g76
g57
NtRp537
(dp538
g60
(dp539
sg69
g524
sg62
(lp540
g55
(g56
g57
NtRp541
(dp542
g60
(dp543
g68
I4
ssg69
g537
sg62
(lp544
S'set([])'
p545
asbasbasbag55
(g71
g57
NtRp546
(dp547
g60
(dp548
sg69
g429
sg62
(lp549
g55
(g76
g57
NtRp550
(dp551
g60
(dp552
g80
g81
ssg69
g546
sg62
(lp553
S'debugging'
p554
asbag55
(g76
g57
NtRp555
(dp556
g60
(dp557
g87
g88
ssg69
g546
sg62
(lp558
S':'
asbag55
(g76
g57
NtRp559
(dp560
g60
(dp561
sg69
g546
sg62
(lp562
g55
(g56
g57
NtRp563
(dp564
g60
(dp565
g68
I4
ssg69
g559
sg62
(lp566
g98
asbasbasbag55
(g71
g57
NtRp567
(dp568
g60
(dp569
sg69
g429
sg62
(lp570
g55
(g76
g57
NtRp571
(dp572
g60
(dp573
g80
g81
ssg69
g567
sg62
(lp574
S'gluon_parent'
p575
asbag55
(g76
g57
NtRp576
(dp577
g60
(dp578
g87
g88
ssg69
g567
sg62
(lp579
S':'
asbag55
(g76
g57
NtRp580
(dp581
g60
(dp582
sg69
g567
sg62
(lp583
g55
(g56
g57
NtRp584
(dp585
g60
(dp586
g68
I4
ssg69
g580
sg62
(lp587
S'C:\\Documents and Settings\\Guest\\Desktop\\web2py_win\\web2py'
p588
asbasbasbag55
(g71
g57
NtRp589
(dp590
g60
(dp591
sg69
g429
sg62
(lp592
g55
(g76
g57
NtRp593
(dp594
g60
(dp595
g80
g81
ssg69
g589
sg62
(lp596
S'http_accept'
p597
asbag55
(g76
g57
NtRp598
(dp599
g60
(dp600
g87
g88
ssg69
g589
sg62
(lp601
S':'
asbag55
(g76
g57
NtRp602
(dp603
g60
(dp604
sg69
g589
sg62
(lp605
g55
(g56
g57
NtRp606
(dp607
g60
(dp608
g68
I4
ssg69
g602
sg62
(lp609
S'text/html,application/xhtml+xml,application/xml;q=0.9,*/*;q=0.8'
p610
asbasbasbag55
(g71
g57
NtRp611
(dp612
g60
(dp613
sg69
g429
sg62
(lp614
g55
(g76
g57
NtRp615
(dp616
g60
(dp617
g80
g81
ssg69
g611
sg62
(lp618
S'http_accept_charset'
p619
asbag55
(g76
g57
NtRp620
(dp621
g60
(dp622
g87
g88
ssg69
g611
sg62
(lp623
S':'
asbag55
(g76
g57
NtRp624
(dp625
g60
(dp626
sg69
g611
sg62
(lp627
g55
(g56
g57
NtRp628
(dp629
g60
(dp630
g68
I4
ssg69
g624
sg62
(lp631
S'ISO-8859-1,utf-8;q=0.7,*;q=0.3'
p632
asbasbasbag55
(g71
g57
NtRp633
(dp634
g60
(dp635
sg69
g429
sg62
(lp636
g55
(g76
g57
NtRp637
(dp638
g60
(dp639
g80
g81
ssg69
g633
sg62
(lp640
S'http_accept_encoding'
p641
asbag55
(g76
g57
NtRp642
(dp643
g60
(dp644
g87
g88
ssg69
g633
sg62
(lp645
S':'
asbag55
(g76
g57
NtRp646
(dp647
g60
(dp648
sg69
g633
sg62
(lp649
g55
(g56
g57
NtRp650
(dp651
g60
(dp652
g68
I4
ssg69
g646
sg62
(lp653
S'gzip,deflate,sdch'
p654
asbasbasbag55
(g71
g57
NtRp655
(dp656
g60
(dp657
sg69
g429
sg62
(lp658
g55
(g76
g57
NtRp659
(dp660
g60
(dp661
g80
g81
ssg69
g655
sg62
(lp662
S'http_accept_language'
p663
asbag55
(g76
g57
NtRp664
(dp665
g60
(dp666
g87
g88
ssg69
g655
sg62
(lp667
S':'
asbag55
(g76
g57
NtRp668
(dp669
g60
(dp670
sg69
g655
sg62
(lp671
g55
(g56
g57
NtRp672
(dp673
g60
(dp674
g68
I4
ssg69
g668
sg62
(lp675
S'en-US,en;q=0.8'
p676
asbasbasbag55
(g71
g57
NtRp677
(dp678
g60
(dp679
sg69
g429
sg62
(lp680
g55
(g76
g57
NtRp681
(dp682
g60
(dp683
g80
g81
ssg69
g677
sg62
(lp684
S'http_connection'
p685
asbag55
(g76
g57
NtRp686
(dp687
g60
(dp688
g87
g88
ssg69
g677
sg62
(lp689
S':'
asbag55
(g76
g57
NtRp690
(dp691
g60
(dp692
sg69
g677
sg62
(lp693
g55
(g56
g57
NtRp694
(dp695
g60
(dp696
g68
I4
ssg69
g690
sg62
(lp697
S'keep-alive'
p698
asbasbasbag55
(g71
g57
NtRp699
(dp700
g60
(dp701
sg69
g429
sg62
(lp702
g55
(g76
g57
NtRp703
(dp704
g60
(dp705
g80
g81
ssg69
g699
sg62
(lp706
S'http_cookie'
p707
asbag55
(g76
g57
NtRp708
(dp709
g60
(dp710
g87
g88
ssg69
g699
sg62
(lp711
S':'
asbag55
(g76
g57
NtRp712
(dp713
g60
(dp714
sg69
g699
sg62
(lp715
g55
(g56
g57
NtRp716
(dp717
g60
(dp718
g68
I4
ssg69
g712
sg62
(lp719
S'session_id_welcome=127.0.0.1-3c16ef67-ec2f-4ec8-8260-17d13cf69a55'
p720
asbasbasbag55
(g71
g57
NtRp721
(dp722
g60
(dp723
sg69
g429
sg62
(lp724
g55
(g76
g57
NtRp725
(dp726
g60
(dp727
g80
g81
ssg69
g721
sg62
(lp728
S'http_host'
p729
asbag55
(g76
g57
NtRp730
(dp731
g60
(dp732
g87
g88
ssg69
g721
sg62
(lp733
S':'
asbag55
(g76
g57
NtRp734
(dp735
g60
(dp736
sg69
g721
sg62
(lp737
g55
(g56
g57
NtRp738
(dp739
g60
(dp740
g68
I4
ssg69
g734
sg62
(lp741
S'127.0.0.1:8000'
p742
asbasbasbag55
(g71
g57
NtRp743
(dp744
g60
(dp745
sg69
g429
sg62
(lp746
g55
(g76
g57
NtRp747
(dp748
g60
(dp749
g80
g81
ssg69
g743
sg62
(lp750
S'http_user_agent'
p751
asbag55
(g76
g57
NtRp752
(dp753
g60
(dp754
g87
g88
ssg69
g743
sg62
(lp755
S':'
asbag55
(g76
g57
NtRp756
(dp757
g60
(dp758
sg69
g743
sg62
(lp759
g55
(g56
g57
NtRp760
(dp761
g60
(dp762
g68
I4
ssg69
g756
sg62
(lp763
S'Mozilla/5.0 (Windows NT 5.1) AppleWebKit/536.5 (KHTML, like Gecko) Chrome/19.0.1084.56 Safari/536.5'
p764
asbasbasbag55
(g71
g57
NtRp765
(dp766
g60
(dp767
sg69
g429
sg62
(lp768
g55
(g76
g57
NtRp769
(dp770
g60
(dp771
g80
g81
ssg69
g765
sg62
(lp772
S'is_jython'
p773
asbag55
(g76
g57
NtRp774
(dp775
g60
(dp776
g87
g88
ssg69
g765
sg62
(lp777
S':'
asbag55
(g76
g57
NtRp778
(dp779
g60
(dp780
sg69
g765
sg62
(lp781
g55
(g56
g57
NtRp782
(dp783
g60
(dp784
g68
I4
ssg69
g778
sg62
(lp785
g98
asbasbasbag55
(g71
g57
NtRp786
(dp787
g60
(dp788
sg69
g429
sg62
(lp789
g55
(g76
g57
NtRp790
(dp791
g60
(dp792
g80
g81
ssg69
g786
sg62
(lp793
S'is_pypy'
p794
asbag55
(g76
g57
NtRp795
(dp796
g60
(dp797
g87
g88
ssg69
g786
sg62
(lp798
S':'
asbag55
(g76
g57
NtRp799
(dp800
g60
(dp801
sg69
g786
sg62
(lp802
g55
(g56
g57
NtRp803
(dp804
g60
(dp805
g68
I4
ssg69
g799
sg62
(lp806
g98
asbasbasbag55
(g71
g57
NtRp807
(dp808
g60
(dp809
sg69
g429
sg62
(lp810
g55
(g76
g57
NtRp811
(dp812
g60
(dp813
g80
g81
ssg69
g807
sg62
(lp814
S'path_info'
p815
asbag55
(g76
g57
NtRp816
(dp817
g60
(dp818
g87
g88
ssg69
g807
sg62
(lp819
S':'
asbag55
(g76
g57
NtRp820
(dp821
g60
(dp822
sg69
g807
sg62
(lp823
g55
(g56
g57
NtRp824
(dp825
g60
(dp826
g68
I4
ssg69
g820
sg62
(lp827
S'/Phylografter/default/index'
p828
asbasbasbag55
(g71
g57
NtRp829
(dp830
g60
(dp831
sg69
g429
sg62
(lp832
g55
(g76
g57
NtRp833
(dp834
g60
(dp835
g80
g81
ssg69
g829
sg62
(lp836
S'query_string'
p837
asbag55
(g76
g57
NtRp838
(dp839
g60
(dp840
g87
g88
ssg69
g829
sg62
(lp841
S':'
asbag55
(g76
g57
NtRp842
(dp843
g60
(dp844
sg69
g829
sg62
(lp845
g55
(g56
g57
NtRp846
(dp847
g60
(dp848
g68
I4
ssg69
g842
sg62
(lp849
S''
asbasbasbag55
(g71
g57
NtRp850
(dp851
g60
(dp852
sg69
g429
sg62
(lp853
g55
(g76
g57
NtRp854
(dp855
g60
(dp856
g80
g81
ssg69
g850
sg62
(lp857
S'remote_addr'
p858
asbag55
(g76
g57
NtRp859
(dp860
g60
(dp861
g87
g88
ssg69
g850
sg62
(lp862
S':'
asbag55
(g76
g57
NtRp863
(dp864
g60
(dp865
sg69
g850
sg62
(lp866
g55
(g56
g57
NtRp867
(dp868
g60
(dp869
g68
I4
ssg69
g863
sg62
(lp870
g188
asbasbasbag55
(g71
g57
NtRp871
(dp872
g60
(dp873
sg69
g429
sg62
(lp874
g55
(g76
g57
NtRp875
(dp876
g60
(dp877
g80
g81
ssg69
g871
sg62
(lp878
S'remote_port'
p879
asbag55
(g76
g57
NtRp880
(dp881
g60
(dp882
g87
g88
ssg69
g871
sg62
(lp883
S':'
asbag55
(g76
g57
NtRp884
(dp885
g60
(dp886
sg69
g871
sg62
(lp887
g55
(g56
g57
NtRp888
(dp889
g60
(dp890
g68
I4
ssg69
g884
sg62
(lp891
S'2049'
p892
asbasbasbag55
(g71
g57
NtRp893
(dp894
g60
(dp895
sg69
g429
sg62
(lp896
g55
(g76
g57
NtRp897
(dp898
g60
(dp899
g80
g81
ssg69
g893
sg62
(lp900
S'request_method'
p901
asbag55
(g76
g57
NtRp902
(dp903
g60
(dp904
g87
g88
ssg69
g893
sg62
(lp905
S':'
asbag55
(g76
g57
NtRp906
(dp907
g60
(dp908
sg69
g893
sg62
(lp909
g55
(g56
g57
NtRp910
(dp911
g60
(dp912
g68
I4
ssg69
g906
sg62
(lp913
S'GET'
p914
asbasbasbag55
(g71
g57
NtRp915
(dp916
g60
(dp917
sg69
g429
sg62
(lp918
g55
(g76
g57
NtRp919
(dp920
g60
(dp921
g80
g81
ssg69
g915
sg62
(lp922
S'script_name'
p923
asbag55
(g76
g57
NtRp924
(dp925
g60
(dp926
g87
g88
ssg69
g915
sg62
(lp927
S':'
asbag55
(g76
g57
NtRp928
(dp929
g60
(dp930
sg69
g915
sg62
(lp931
g55
(g56
g57
NtRp932
(dp933
g60
(dp934
g68
I4
ssg69
g928
sg62
(lp935
S''
asbasbasbag55
(g71
g57
NtRp936
(dp937
g60
(dp938
sg69
g429
sg62
(lp939
g55
(g76
g57
NtRp940
(dp941
g60
(dp942
g80
g81
ssg69
g936
sg62
(lp943
S'server_name'
p944
asbag55
(g76
g57
NtRp945
(dp946
g60
(dp947
g87
g88
ssg69
g936
sg62
(lp948
S':'
asbag55
(g76
g57
NtRp949
(dp950
g60
(dp951
sg69
g936
sg62
(lp952
g55
(g56
g57
NtRp953
(dp954
g60
(dp955
g68
I4
ssg69
g949
sg62
(lp956
S'fm-biosync-int1'
p957
asbasbasbag55
(g71
g57
NtRp958
(dp959
g60
(dp960
sg69
g429
sg62
(lp961
g55
(g76
g57
NtRp962
(dp963
g60
(dp964
g80
g81
ssg69
g958
sg62
(lp965
S'server_port'
p966
asbag55
(g76
g57
NtRp967
(dp968
g60
(dp969
g87
g88
ssg69
g958
sg62
(lp970
S':'
asbag55
(g76
g57
NtRp971
(dp972
g60
(dp973
sg69
g958
sg62
(lp974
g55
(g56
g57
NtRp975
(dp976
g60
(dp977
g68
I4
ssg69
g971
sg62
(lp978
S'8000'
p979
asbasbasbag55
(g71
g57
NtRp980
(dp981
g60
(dp982
sg69
g429
sg62
(lp983
g55
(g76
g57
NtRp984
(dp985
g60
(dp986
g80
g81
ssg69
g980
sg62
(lp987
S'server_protocol'
p988
asbag55
(g76
g57
NtRp989
(dp990
g60
(dp991
g87
g88
ssg69
g980
sg62
(lp992
S':'
asbag55
(g76
g57
NtRp993
(dp994
g60
(dp995
sg69
g980
sg62
(lp996
g55
(g56
g57
NtRp997
(dp998
g60
(dp999
g68
I4
ssg69
g993
sg62
(lp1000
S'HTTP/1.1'
p1001
asbasbasbag55
(g71
g57
NtRp1002
(dp1003
g60
(dp1004
sg69
g429
sg62
(lp1005
g55
(g76
g57
NtRp1006
(dp1007
g60
(dp1008
g80
g81
ssg69
g1002
sg62
(lp1009
S'server_software'
p1010
asbag55
(g76
g57
NtRp1011
(dp1012
g60
(dp1013
g87
g88
ssg69
g1002
sg62
(lp1014
S':'
asbag55
(g76
g57
NtRp1015
(dp1016
g60
(dp1017
sg69
g1002
sg62
(lp1018
g55
(g56
g57
NtRp1019
(dp1020
g60
(dp1021
g68
I4
ssg69
g1015
sg62
(lp1022
S'Rocket 1.2.4'
p1023
asbasbasbag55
(g71
g57
NtRp1024
(dp1025
g60
(dp1026
sg69
g429
sg62
(lp1027
g55
(g76
g57
NtRp1028
(dp1029
g60
(dp1030
g80
g81
ssg69
g1024
sg62
(lp1031
S'web2py_crontype'
p1032
asbag55
(g76
g57
NtRp1033
(dp1034
g60
(dp1035
g87
g88
ssg69
g1024
sg62
(lp1036
S':'
asbag55
(g76
g57
NtRp1037
(dp1038
g60
(dp1039
sg69
g1024
sg62
(lp1040
g55
(g56
g57
NtRp1041
(dp1042
g60
(dp1043
g68
I4
ssg69
g1037
sg62
(lp1044
S'hard'
p1045
asbasbasbag55
(g71
g57
NtRp1046
(dp1047
g60
(dp1048
sg69
g429
sg62
(lp1049
g55
(g76
g57
NtRp1050
(dp1051
g60
(dp1052
g80
g81
ssg69
g1046
sg62
(lp1053
S'web2py_path'
p1054
asbag55
(g76
g57
NtRp1055
(dp1056
g60
(dp1057
g87
g88
ssg69
g1046
sg62
(lp1058
S':'
asbag55
(g76
g57
NtRp1059
(dp1060
g60
(dp1061
sg69
g1046
sg62
(lp1062
g55
(g56
g57
NtRp1063
(dp1064
g60
(dp1065
g68
I4
ssg69
g1059
sg62
(lp1066
g476
asbasbasbag55
(g71
g57
NtRp1067
(dp1068
g60
(dp1069
sg69
g429
sg62
(lp1070
g55
(g76
g57
NtRp1071
(dp1072
g60
(dp1073
g80
g81
ssg69
g1067
sg62
(lp1074
S'web2py_version'
p1075
asbag55
(g76
g57
NtRp1076
(dp1077
g60
(dp1078
g87
g88
ssg69
g1067
sg62
(lp1079
S':'
asbag55
(g76
g57
NtRp1080
(dp1081
g60
(dp1082
sg69
g1067
sg62
(lp1083
g55
(g56
g57
NtRp1084
(dp1085
g60
(dp1086
g68
I4
ssg69
g1080
sg62
(lp1087
g55
(g64
g57
NtRp1088
(dp1089
g60
(dp1090
g68
I3
ssg69
Nsg62
(lp1091
g55
(g71
g57
NtRp1092
(dp1093
g60
(dp1094
sg69
g1088
sg62
(lp1095
g55
(g76
g57
NtRp1096
(dp1097
g60
(dp1098
sg69
g1092
sg62
(lp1099
g55
(g56
g57
NtRp1100
(dp1101
g60
(dp1102
g68
I3
ssg69
g1096
sg62
(lp1103
S'1'
asbasbasbag55
(g71
g57
NtRp1104
(dp1105
g60
(dp1106
sg69
g1088
sg62
(lp1107
g55
(g76
g57
NtRp1108
(dp1109
g60
(dp1110
sg69
g1104
sg62
(lp1111
g55
(g56
g57
NtRp1112
(dp1113
g60
(dp1114
g68
I3
ssg69
g1108
sg62
(lp1115
S'99'
p1116
asbasbasbag55
(g71
g57
NtRp1117
(dp1118
g60
(dp1119
sg69
g1088
sg62
(lp1120
g55
(g76
g57
NtRp1121
(dp1122
g60
(dp1123
sg69
g1117
sg62
(lp1124
g55
(g56
g57
NtRp1125
(dp1126
g60
(dp1127
g68
I3
ssg69
g1121
sg62
(lp1128
S'7'
asbasbasbag55
(g71
g57
NtRp1129
(dp1130
g60
(dp1131
sg69
g1088
sg62
(lp1132
g55
(g76
g57
NtRp1133
(dp1134
g60
(dp1135
sg69
g1129
sg62
(lp1136
g55
(g56
g57
NtRp1137
(dp1138
g60
(dp1139
g68
I3
ssg69
g1133
sg62
(lp1140
S'datetime.datetime(2012, 3, 4, 22, 12, 8)'
p1141
asbasbasbag55
(g71
g57
NtRp1142
(dp1143
g60
(dp1144
sg69
g1088
sg62
(lp1145
g55
(g76
g57
NtRp1146
(dp1147
g60
(dp1148
sg69
g1142
sg62
(lp1149
g55
(g56
g57
NtRp1150
(dp1151
g60
(dp1152
g68
I3
ssg69
g1146
sg62
(lp1153
S'stable'
p1154
asbasbasbasbasbasbasbag55
(g71
g57
NtRp1155
(dp1156
g60
(dp1157
sg69
g429
sg62
(lp1158
g55
(g76
g57
NtRp1159
(dp1160
g60
(dp1161
g80
g81
ssg69
g1155
sg62
(lp1162
S'wsgi_errors'
p1163
asbag55
(g76
g57
NtRp1164
(dp1165
g60
(dp1166
g87
g88
ssg69
g1155
sg62
(lp1167
S':'
asbag55
(g76
g57
NtRp1168
(dp1169
g60
(dp1170
sg69
g1155
sg62
(lp1171
g55
(g56
g57
NtRp1172
(dp1173
g60
(dp1174
g68
I4
ssg69
g1168
sg62
(lp1175
S"<open file '<stderr>', mode 'w' at 0x009000B0>"
p1176
asbasbasbag55
(g71
g57
NtRp1177
(dp1178
g60
(dp1179
sg69
g429
sg62
(lp1180
g55
(g76
g57
NtRp1181
(dp1182
g60
(dp1183
g80
g81
ssg69
g1177
sg62
(lp1184
S'wsgi_file_wrapper'
p1185
asbag55
(g76
g57
NtRp1186
(dp1187
g60
(dp1188
g87
g88
ssg69
g1177
sg62
(lp1189
S':'
asbag55
(g76
g57
NtRp1190
(dp1191
g60
(dp1192
sg69
g1177
sg62
(lp1193
g55
(g56
g57
NtRp1194
(dp1195
g60
(dp1196
g68
I4
ssg69
g1190
sg62
(lp1197
S'<class wsgiref.util.FileWrapper at 0x016471E0>'
p1198
asbasbasbag55
(g71
g57
NtRp1199
(dp1200
g60
(dp1201
sg69
g429
sg62
(lp1202
g55
(g76
g57
NtRp1203
(dp1204
g60
(dp1205
g80
g81
ssg69
g1199
sg62
(lp1206
S'wsgi_input'
p1207
asbag55
(g76
g57
NtRp1208
(dp1209
g60
(dp1210
g87
g88
ssg69
g1199
sg62
(lp1211
S':'
asbag55
(g76
g57
NtRp1212
(dp1213
g60
(dp1214
sg69
g1199
sg62
(lp1215
g55
(g56
g57
NtRp1216
(dp1217
g60
(dp1218
g68
I4
ssg69
g1212
sg62
(lp1219
S'<socket._fileobject object at 0x019E99F0>'
p1220
asbasbasbag55
(g71
g57
NtRp1221
(dp1222
g60
(dp1223
sg69
g429
sg62
(lp1224
g55
(g76
g57
NtRp1225
(dp1226
g60
(dp1227
g80
g81
ssg69
g1221
sg62
(lp1228
S'wsgi_multiprocess'
p1229
asbag55
(g76
g57
NtRp1230
(dp1231
g60
(dp1232
g87
g88
ssg69
g1221
sg62
(lp1233
S':'
asbag55
(g76
g57
NtRp1234
(dp1235
g60
(dp1236
sg69
g1221
sg62
(lp1237
g55
(g56
g57
NtRp1238
(dp1239
g60
(dp1240
g68
I4
ssg69
g1234
sg62
(lp1241
g98
asbasbasbag55
(g71
g57
NtRp1242
(dp1243
g60
(dp1244
sg69
g429
sg62
(lp1245
g55
(g76
g57
NtRp1246
(dp1247
g60
(dp1248
g80
g81
ssg69
g1242
sg62
(lp1249
S'wsgi_multithread'
p1250
asbag55
(g76
g57
NtRp1251
(dp1252
g60
(dp1253
g87
g88
ssg69
g1242
sg62
(lp1254
S':'
asbag55
(g76
g57
NtRp1255
(dp1256
g60
(dp1257
sg69
g1242
sg62
(lp1258
g55
(g56
g57
NtRp1259
(dp1260
g60
(dp1261
g68
I4
ssg69
g1255
sg62
(lp1262
S'True'
p1263
asbasbasbag55
(g71
g57
NtRp1264
(dp1265
g60
(dp1266
sg69
g429
sg62
(lp1267
g55
(g76
g57
NtRp1268
(dp1269
g60
(dp1270
g80
g81
ssg69
g1264
sg62
(lp1271
S'wsgi_run_once'
p1272
asbag55
(g76
g57
NtRp1273
(dp1274
g60
(dp1275
g87
g88
ssg69
g1264
sg62
(lp1276
S':'
asbag55
(g76
g57
NtRp1277
(dp1278
g60
(dp1279
sg69
g1264
sg62
(lp1280
g55
(g56
g57
NtRp1281
(dp1282
g60
(dp1283
g68
I4
ssg69
g1277
sg62
(lp1284
g98
asbasbasbag55
(g71
g57
NtRp1285
(dp1286
g60
(dp1287
sg69
g429
sg62
(lp1288
g55
(g76
g57
NtRp1289
(dp1290
g60
(dp1291
g80
g81
ssg69
g1285
sg62
(lp1292
S'wsgi_url_scheme'
p1293
asbag55
(g76
g57
NtRp1294
(dp1295
g60
(dp1296
g87
g88
ssg69
g1285
sg62
(lp1297
S':'
asbag55
(g76
g57
NtRp1298
(dp1299
g60
(dp1300
sg69
g1285
sg62
(lp1301
g55
(g56
g57
NtRp1302
(dp1303
g60
(dp1304
g68
I4
ssg69
g1298
sg62
(lp1305
S'http'
p1306
asbasbasbag55
(g71
g57
NtRp1307
(dp1308
g60
(dp1309
sg69
g429
sg62
(lp1310
g55
(g76
g57
NtRp1311
(dp1312
g60
(dp1313
g80
g81
ssg69
g1307
sg62
(lp1314
S'wsgi_version'
p1315
asbag55
(g76
g57
NtRp1316
(dp1317
g60
(dp1318
g87
g88
ssg69
g1307
sg62
(lp1319
S':'
asbag55
(g76
g57
NtRp1320
(dp1321
g60
(dp1322
sg69
g1307
sg62
(lp1323
g55
(g56
g57
NtRp1324
(dp1325
g60
(dp1326
g68
I4
ssg69
g1320
sg62
(lp1327
g55
(g64
g57
NtRp1328
(dp1329
g60
(dp1330
g68
I3
ssg69
Nsg62
(lp1331
g55
(g71
g57
NtRp1332
(dp1333
g60
(dp1334
sg69
g1328
sg62
(lp1335
g55
(g76
g57
NtRp1336
(dp1337
g60
(dp1338
sg69
g1332
sg62
(lp1339
g55
(g56
g57
NtRp1340
(dp1341
g60
(dp1342
g68
I3
ssg69
g1336
sg62
(lp1343
S'1'
asbasbasbag55
(g71
g57
NtRp1344
(dp1345
g60
(dp1346
sg69
g1328
sg62
(lp1347
g55
(g76
g57
NtRp1348
(dp1349
g60
(dp1350
sg69
g1344
sg62
(lp1351
g55
(g56
g57
NtRp1352
(dp1353
g60
(dp1354
g68
I3
ssg69
g1348
sg62
(lp1355
S'0'
asbasbasbasbasbasbasbasbasbasbasbag55
(g71
g57
NtRp1356
(dp1357
g60
(dp1358
sg69
g65
sg62
(lp1359
g55
(g76
g57
NtRp1360
(dp1361
g60
(dp1362
g80
g81
ssg69
g1356
sg62
(lp1363
S'extension'
p1364
asbag55
(g76
g57
NtRp1365
(dp1366
g60
(dp1367
g87
g88
ssg69
g1356
sg62
(lp1368
S':'
asbag55
(g76
g57
NtRp1369
(dp1370
g60
(dp1371
sg69
g1356
sg62
(lp1372
g55
(g56
g57
NtRp1373
(dp1374
g60
(dp1375
g68
I5
ssg69
g1369
sg62
(lp1376
S'html'
p1377
asbasbasbag55
(g71
g57
NtRp1378
(dp1379
g60
(dp1380
sg69
g65
sg62
(lp1381
g55
(g76
g57
NtRp1382
(dp1383
g60
(dp1384
g80
g81
ssg69
g1378
sg62
(lp1385
S'folder'
p1386
asbag55
(g76
g57
NtRp1387
(dp1388
g60
(dp1389
g87
g88
ssg69
g1378
sg62
(lp1390
S':'
asbag55
(g76
g57
NtRp1391
(dp1392
g60
(dp1393
sg69
g1378
sg62
(lp1394
g55
(g56
g57
NtRp1395
(dp1396
g60
(dp1397
g68
I5
ssg69
g1391
sg62
(lp1398
S'C:\\Documents and Settings\\Guest\\Desktop\\web2py_win\\web2py\\applications\\Phylografter\\'
p1399
asbasbasbag55
(g71
g57
NtRp1400
(dp1401
g60
(dp1402
sg69
g65
sg62
(lp1403
g55
(g76
g57
NtRp1404
(dp1405
g60
(dp1406
g80
g81
ssg69
g1400
sg62
(lp1407
S'function'
p1408
asbag55
(g76
g57
NtRp1409
(dp1410
g60
(dp1411
g87
g88
ssg69
g1400
sg62
(lp1412
S':'
asbag55
(g76
g57
NtRp1413
(dp1414
g60
(dp1415
sg69
g1400
sg62
(lp1416
g55
(g56
g57
NtRp1417
(dp1418
g60
(dp1419
g68
I5
ssg69
g1413
sg62
(lp1420
S'index'
p1421
asbasbasbag55
(g71
g57
NtRp1422
(dp1423
g60
(dp1424
sg69
g65
sg62
(lp1425
g55
(g76
g57
NtRp1426
(dp1427
g60
(dp1428
g80
g81
ssg69
g1422
sg62
(lp1429
S'get_vars'
p1430
asbag55
(g76
g57
NtRp1431
(dp1432
g60
(dp1433
g87
g88
ssg69
g1422
sg62
(lp1434
S':'
asbag55
(g76
g57
NtRp1435
(dp1436
g60
(dp1437
sg69
g1422
sg62
(lp1438
g55
(g56
g57
NtRp1439
(dp1440
g60
(dp1441
g68
I5
ssg69
g1435
sg62
(lp1442
g55
(g64
g57
NtRp1443
(dp1444
g60
(dp1445
g68
I4
ssg69
Nsg62
(lp1446
sbasbasbasbag55
(g71
g57
NtRp1447
(dp1448
g60
(dp1449
sg69
g65
sg62
(lp1450
g55
(g76
g57
NtRp1451
(dp1452
g60
(dp1453
g80
g81
ssg69
g1447
sg62
(lp1454
S'global_settings'
p1455
asbag55
(g76
g57
NtRp1456
(dp1457
g60
(dp1458
g87
g88
ssg69
g1447
sg62
(lp1459
S':'
asbag55
(g76
g57
NtRp1460
(dp1461
g60
(dp1462
sg69
g1447
sg62
(lp1463
g55
(g56
g57
NtRp1464
(dp1465
g60
(dp1466
g68
I5
ssg69
g1460
sg62
(lp1467
g55
(g64
g57
NtRp1468
(dp1469
g60
(dp1470
g68
I4
ssg69
Nsg62
(lp1471
g55
(g71
g57
NtRp1472
(dp1473
g60
(dp1474
sg69
g1468
sg62
(lp1475
g55
(g76
g57
NtRp1476
(dp1477
g60
(dp1478
g80
g81
ssg69
g1472
sg62
(lp1479
g441
asbag55
(g76
g57
NtRp1480
(dp1481
g60
(dp1482
g87
g88
ssg69
g1472
sg62
(lp1483
S':'
asbag55
(g76
g57
NtRp1484
(dp1485
g60
(dp1486
sg69
g1472
sg62
(lp1487
g55
(g56
g57
NtRp1488
(dp1489
g60
(dp1490
g68
I4
ssg69
g1484
sg62
(lp1491
S"set(['C:\\\\Documents and Settings\\\\Guest\\\\Desktop\\\\web2py_win\\\\web2py\\\\applications\\\\Phylografter\\\\', 'C:\\\\Documents and Settings\\\\Guest\\\\Desktop\\\\web2py_win\\\\web2py\\\\applications\\\\welcome\\\\'])"
p1492
asbasbasbag55
(g71
g57
NtRp1493
(dp1494
g60
(dp1495
sg69
g1468
sg62
(lp1496
g55
(g76
g57
NtRp1497
(dp1498
g60
(dp1499
g80
g81
ssg69
g1493
sg62
(lp1500
g463
asbag55
(g76
g57
NtRp1501
(dp1502
g60
(dp1503
g87
g88
ssg69
g1493
sg62
(lp1504
S':'
asbag55
(g76
g57
NtRp1505
(dp1506
g60
(dp1507
sg69
g1493
sg62
(lp1508
g55
(g56
g57
NtRp1509
(dp1510
g60
(dp1511
g68
I4
ssg69
g1505
sg62
(lp1512
g476
asbasbasbag55
(g71
g57
NtRp1513
(dp1514
g60
(dp1515
sg69
g1468
sg62
(lp1516
g55
(g76
g57
NtRp1517
(dp1518
g60
(dp1519
g80
g81
ssg69
g1513
sg62
(lp1520
g485
asbag55
(g76
g57
NtRp1521
(dp1522
g60
(dp1523
g87
g88
ssg69
g1513
sg62
(lp1524
S':'
asbag55
(g76
g57
NtRp1525
(dp1526
g60
(dp1527
sg69
g1513
sg62
(lp1528
g55
(g56
g57
NtRp1529
(dp1530
g60
(dp1531
g68
I4
ssg69
g1525
sg62
(lp1532
g55
(g64
g57
NtRp1533
(dp1534
g60
(dp1535
g68
I3
ssg69
Nsg62
(lp1536
sbasbasbasbag55
(g71
g57
NtRp1537
(dp1538
g60
(dp1539
sg69
g1468
sg62
(lp1540
g55
(g76
g57
NtRp1541
(dp1542
g60
(dp1543
g80
g81
ssg69
g1537
sg62
(lp1544
g510
asbag55
(g76
g57
NtRp1545
(dp1546
g60
(dp1547
g87
g88
ssg69
g1537
sg62
(lp1548
S':'
asbag55
(g76
g57
NtRp1549
(dp1550
g60
(dp1551
sg69
g1537
sg62
(lp1552
g55
(g56
g57
NtRp1553
(dp1554
g60
(dp1555
g68
I4
ssg69
g1549
sg62
(lp1556
S"<Values at 0x1879878: {'verbose': False, 'ip': '127.0.0.1', 'shutdown_timeout': 5, 'taskbar': False, 'nocron': False, 'pid_filename': 'httpserver.pid', 'maxthreads': None, 'softcron': False, 'server_name': 'fm-biosync-int1', 'bpython': False, 'nogui': False, 'port': 8000, 'extcron': False, 'debuglevel': 30, 'test': None, 'folder': 'C:\\\\Documents and Settings\\\\Guest\\\\Desktop\\\\web2py_win\\\\web2py', 'config': '', 'import_models': False, 'winservice': '', 'shell': None, 'run': '', 'log_filename': 'httpserver.log', 'args': [''], 'socket_timeout': 5, 'ssl_ca_certificate': None, 'scheduler': None, 'profiler_filename': None, 'ssl_private_key': '', 'password': '<ask>', 'request_queue_size': 5, 'ssl_certificate': '', 'cronjob': False, 'numthreads': None, 'quiet': False, 'interfaces': None, 'minthreads': None, 'timeout': 10, 'plain': False, 'nobanner': False}>"
p1557
asbasbasbag55
(g71
g57
NtRp1558
(dp1559
g60
(dp1560
sg69
g1468
sg62
(lp1561
g55
(g76
g57
NtRp1562
(dp1563
g60
(dp1564
g80
g81
ssg69
g1558
sg62
(lp1565
g532
asbag55
(g76
g57
NtRp1566
(dp1567
g60
(dp1568
g87
g88
ssg69
g1558
sg62
(lp1569
S':'
asbag55
(g76
g57
NtRp1570
(dp1571
g60
(dp1572
sg69
g1558
sg62
(lp1573
g55
(g56
g57
NtRp1574
(dp1575
g60
(dp1576
g68
I4
ssg69
g1570
sg62
(lp1577
S'set([])'
p1578
asbasbasbag55
(g71
g57
NtRp1579
(dp1580
g60
(dp1581
sg69
g1468
sg62
(lp1582
g55
(g76
g57
NtRp1583
(dp1584
g60
(dp1585
g80
g81
ssg69
g1579
sg62
(lp1586
g554
asbag55
(g76
g57
NtRp1587
(dp1588
g60
(dp1589
g87
g88
ssg69
g1579
sg62
(lp1590
S':'
asbag55
(g76
g57
NtRp1591
(dp1592
g60
(dp1593
sg69
g1579
sg62
(lp1594
g55
(g56
g57
NtRp1595
(dp1596
g60
(dp1597
g68
I4
ssg69
g1591
sg62
(lp1598
g98
asbasbasbag55
(g71
g57
NtRp1599
(dp1600
g60
(dp1601
sg69
g1468
sg62
(lp1602
g55
(g76
g57
NtRp1603
(dp1604
g60
(dp1605
g80
g81
ssg69
g1599
sg62
(lp1606
g575
asbag55
(g76
g57
NtRp1607
(dp1608
g60
(dp1609
g87
g88
ssg69
g1599
sg62
(lp1610
S':'
asbag55
(g76
g57
NtRp1611
(dp1612
g60
(dp1613
sg69
g1599
sg62
(lp1614
g55
(g56
g57
NtRp1615
(dp1616
g60
(dp1617
g68
I4
ssg69
g1611
sg62
(lp1618
g588
asbasbasbag55
(g71
g57
NtRp1619
(dp1620
g60
(dp1621
sg69
g1468
sg62
(lp1622
g55
(g76
g57
NtRp1623
(dp1624
g60
(dp1625
g80
g81
ssg69
g1619
sg62
(lp1626
g773
asbag55
(g76
g57
NtRp1627
(dp1628
g60
(dp1629
g87
g88
ssg69
g1619
sg62
(lp1630
S':'
asbag55
(g76
g57
NtRp1631
(dp1632
g60
(dp1633
sg69
g1619
sg62
(lp1634
g55
(g56
g57
NtRp1635
(dp1636
g60
(dp1637
g68
I4
ssg69
g1631
sg62
(lp1638
g98
asbasbasbag55
(g71
g57
NtRp1639
(dp1640
g60
(dp1641
sg69
g1468
sg62
(lp1642
g55
(g76
g57
NtRp1643
(dp1644
g60
(dp1645
g80
g81
ssg69
g1639
sg62
(lp1646
g794
asbag55
(g76
g57
NtRp1647
(dp1648
g60
(dp1649
g87
g88
ssg69
g1639
sg62
(lp1650
S':'
asbag55
(g76
g57
NtRp1651
(dp1652
g60
(dp1653
sg69
g1639
sg62
(lp1654
g55
(g56
g57
NtRp1655
(dp1656
g60
(dp1657
g68
I4
ssg69
g1651
sg62
(lp1658
g98
asbasbasbag55
(g71
g57
NtRp1659
(dp1660
g60
(dp1661
sg69
g1468
sg62
(lp1662
g55
(g76
g57
NtRp1663
(dp1664
g60
(dp1665
g80
g81
ssg69
g1659
sg62
(lp1666
g1032
asbag55
(g76
g57
NtRp1667
(dp1668
g60
(dp1669
g87
g88
ssg69
g1659
sg62
(lp1670
S':'
asbag55
(g76
g57
NtRp1671
(dp1672
g60
(dp1673
sg69
g1659
sg62
(lp1674
g55
(g56
g57
NtRp1675
(dp1676
g60
(dp1677
g68
I4
ssg69
g1671
sg62
(lp1678
g1045
asbasbasbag55
(g71
g57
NtRp1679
(dp1680
g60
(dp1681
sg69
g1468
sg62
(lp1682
g55
(g76
g57
NtRp1683
(dp1684
g60
(dp1685
g80
g81
ssg69
g1679
sg62
(lp1686
g1075
asbag55
(g76
g57
NtRp1687
(dp1688
g60
(dp1689
g87
g88
ssg69
g1679
sg62
(lp1690
S':'
asbag55
(g76
g57
NtRp1691
(dp1692
g60
(dp1693
sg69
g1679
sg62
(lp1694
g55
(g56
g57
NtRp1695
(dp1696
g60
(dp1697
g68
I4
ssg69
g1691
sg62
(lp1698
g55
(g64
g57
NtRp1699
(dp1700
g60
(dp1701
g68
I3
ssg69
Nsg62
(lp1702
g55
(g71
g57
NtRp1703
(dp1704
g60
(dp1705
sg69
g1699
sg62
(lp1706
g55
(g76
g57
NtRp1707
(dp1708
g60
(dp1709
sg69
g1703
sg62
(lp1710
g55
(g56
g57
NtRp1711
(dp1712
g60
(dp1713
g68
I3
ssg69
g1707
sg62
(lp1714
S'1'
asbasbasbag55
(g71
g57
NtRp1715
(dp1716
g60
(dp1717
sg69
g1699
sg62
(lp1718
g55
(g76
g57
NtRp1719
(dp1720
g60
(dp1721
sg69
g1715
sg62
(lp1722
g55
(g56
g57
NtRp1723
(dp1724
g60
(dp1725
g68
I3
ssg69
g1719
sg62
(lp1726
S'99'
p1727
asbasbasbag55
(g71
g57
NtRp1728
(dp1729
g60
(dp1730
sg69
g1699
sg62
(lp1731
g55
(g76
g57
NtRp1732
(dp1733
g60
(dp1734
sg69
g1728
sg62
(lp1735
g55
(g56
g57
NtRp1736
(dp1737
g60
(dp1738
g68
I3
ssg69
g1732
sg62
(lp1739
S'7'
asbasbasbag55
(g71
g57
NtRp1740
(dp1741
g60
(dp1742
sg69
g1699
sg62
(lp1743
g55
(g76
g57
NtRp1744
(dp1745
g60
(dp1746
sg69
g1740
sg62
(lp1747
g55
(g56
g57
NtRp1748
(dp1749
g60
(dp1750
g68
I3
ssg69
g1744
sg62
(lp1751
S'datetime.datetime(2012, 3, 4, 22, 12, 8)'
p1752
asbasbasbag55
(g71
g57
NtRp1753
(dp1754
g60
(dp1755
sg69
g1699
sg62
(lp1756
g55
(g76
g57
NtRp1757
(dp1758
g60
(dp1759
sg69
g1753
sg62
(lp1760
g55
(g56
g57
NtRp1761
(dp1762
g60
(dp1763
g68
I3
ssg69
g1757
sg62
(lp1764
g1154
asbasbasbasbasbasbasbasbasbasbasbag55
(g71
g57
NtRp1765
(dp1766
g60
(dp1767
sg69
g65
sg62
(lp1768
g55
(g76
g57
NtRp1769
(dp1770
g60
(dp1771
g80
g81
ssg69
g1765
sg62
(lp1772
S'is_https'
p1773
asbag55
(g76
g57
NtRp1774
(dp1775
g60
(dp1776
g87
g88
ssg69
g1765
sg62
(lp1777
S':'
asbag55
(g76
g57
NtRp1778
(dp1779
g60
(dp1780
sg69
g1765
sg62
(lp1781
g55
(g56
g57
NtRp1782
(dp1783
g60
(dp1784
g68
I5
ssg69
g1778
sg62
(lp1785
g98
asbasbasbag55
(g71
g57
NtRp1786
(dp1787
g60
(dp1788
sg69
g65
sg62
(lp1789
g55
(g76
g57
NtRp1790
(dp1791
g60
(dp1792
g80
g81
ssg69
g1786
sg62
(lp1793
S'is_local'
p1794
asbag55
(g76
g57
NtRp1795
(dp1796
g60
(dp1797
g87
g88
ssg69
g1786
sg62
(lp1798
S':'
asbag55
(g76
g57
NtRp1799
(dp1800
g60
(dp1801
sg69
g1786
sg62
(lp1802
g55
(g56
g57
NtRp1803
(dp1804
g60
(dp1805
g68
I5
ssg69
g1799
sg62
(lp1806
g1263
asbasbasbag55
(g71
g57
NtRp1807
(dp1808
g60
(dp1809
sg69
g65
sg62
(lp1810
g55
(g76
g57
NtRp1811
(dp1812
g60
(dp1813
g80
g81
ssg69
g1807
sg62
(lp1814
S'is_restful'
p1815
asbag55
(g76
g57
NtRp1816
(dp1817
g60
(dp1818
g87
g88
ssg69
g1807
sg62
(lp1819
S':'
asbag55
(g76
g57
NtRp1820
(dp1821
g60
(dp1822
sg69
g1807
sg62
(lp1823
g55
(g56
g57
NtRp1824
(dp1825
g60
(dp1826
g68
I5
ssg69
g1820
sg62
(lp1827
g98
asbasbasbag55
(g71
g57
NtRp1828
(dp1829
g60
(dp1830
sg69
g65
sg62
(lp1831
g55
(g76
g57
NtRp1832
(dp1833
g60
(dp1834
g80
g81
ssg69
g1828
sg62
(lp1835
S'now'
p1836
asbag55
(g76
g57
NtRp1837
(dp1838
g60
(dp1839
g87
g88
ssg69
g1828
sg62
(lp1840
S':'
asbag55
(g76
g57
NtRp1841
(dp1842
g60
(dp1843
sg69
g1828
sg62
(lp1844
g55
(g56
g57
NtRp1845
(dp1846
g60
(dp1847
g68
I5
ssg69
g1841
sg62
(lp1848
S'datetime.datetime(2012, 6, 13, 12, 28, 9, 703000)'
p1849
asbasbasbag55
(g71
g57
NtRp1850
(dp1851
g60
(dp1852
sg69
g65
sg62
(lp1853
g55
(g76
g57
NtRp1854
(dp1855
g60
(dp1856
g80
g81
ssg69
g1850
sg62
(lp1857
S'post_vars'
p1858
asbag55
(g76
g57
NtRp1859
(dp1860
g60
(dp1861
g87
g88
ssg69
g1850
sg62
(lp1862
S':'
asbag55
(g76
g57
NtRp1863
(dp1864
g60
(dp1865
sg69
g1850
sg62
(lp1866
g55
(g56
g57
NtRp1867
(dp1868
g60
(dp1869
g68
I5
ssg69
g1863
sg62
(lp1870
g55
(g64
g57
NtRp1871
(dp1872
g60
(dp1873
g68
I4
ssg69
Nsg62
(lp1874
sbasbasbasbag55
(g71
g57
NtRp1875
(dp1876
g60
(dp1877
sg69
g65
sg62
(lp1878
g55
(g76
g57
NtRp1879
(dp1880
g60
(dp1881
g80
g81
ssg69
g1875
sg62
(lp1882
S'url'
p1883
asbag55
(g76
g57
NtRp1884
(dp1885
g60
(dp1886
g87
g88
ssg69
g1875
sg62
(lp1887
S':'
asbag55
(g76
g57
NtRp1888
(dp1889
g60
(dp1890
sg69
g1875
sg62
(lp1891
g55
(g56
g57
NtRp1892
(dp1893
g60
(dp1894
g68
I5
ssg69
g1888
sg62
(lp1895
S'/Phylografter/default/index'
p1896
asbasbasbag55
(g71
g57
NtRp1897
(dp1898
g60
(dp1899
sg69
g65
sg62
(lp1900
g55
(g76
g57
NtRp1901
(dp1902
g60
(dp1903
g80
g81
ssg69
g1897
sg62
(lp1904
S'utcnow'
p1905
asbag55
(g76
g57
NtRp1906
(dp1907
g60
(dp1908
g87
g88
ssg69
g1897
sg62
(lp1909
S':'
asbag55
(g76
g57
NtRp1910
(dp1911
g60
(dp1912
sg69
g1897
sg62
(lp1913
g55
(g56
g57
NtRp1914
(dp1915
g60
(dp1916
g68
I5
ssg69
g1910
sg62
(lp1917
S'datetime.datetime(2012, 6, 13, 17, 28, 9, 703000)'
p1918
asbasbasbag55
(g71
g57
NtRp1919
(dp1920
g60
(dp1921
sg69
g65
sg62
(lp1922
g55
(g76
g57
NtRp1923
(dp1924
g60
(dp1925
g80
g81
ssg69
g1919
sg62
(lp1926
S'uuid'
p1927
asbag55
(g76
g57
NtRp1928
(dp1929
g60
(dp1930
g87
g88
ssg69
g1919
sg62
(lp1931
S':'
asbag55
(g76
g57
NtRp1932
(dp1933
g60
(dp1934
sg69
g1919
sg62
(lp1935
g55
(g56
g57
NtRp1936
(dp1937
g60
(dp1938
g68
I5
ssg69
g1932
sg62
(lp1939
S'Phylografter/127.0.0.1.2012-06-13.12-28-09.2b3c8704-3318-4c3d-a758-840bbf26c651'
p1940
asbasbasbag55
(g71
g57
NtRp1941
(dp1942
g60
(dp1943
sg69
g65
sg62
(lp1944
g55
(g76
g57
NtRp1945
(dp1946
g60
(dp1947
g80
g81
ssg69
g1941
sg62
(lp1948
S'vars'
p1949
asbag55
(g76
g57
NtRp1950
(dp1951
g60
(dp1952
g87
g88
ssg69
g1941
sg62
(lp1953
S':'
asbag55
(g76
g57
NtRp1954
(dp1955
g60
(dp1956
sg69
g1941
sg62
(lp1957
g55
(g56
g57
NtRp1958
(dp1959
g60
(dp1960
g68
I5
ssg69
g1954
sg62
(lp1961
g55
(g64
g57
NtRp1962
(dp1963
g60
(dp1964
g68
I4
ssg69
Nsg62
(lp1965
sbasbasbasbag55
(g71
g57
NtRp1966
(dp1967
g60
(dp1968
sg69
g65
sg62
(lp1969
g55
(g76
g57
NtRp1970
(dp1971
g60
(dp1972
g80
g81
ssg69
g1966
sg62
(lp1973
S'wsgi'
p1974
asbag55
(g76
g57
NtRp1975
(dp1976
g60
(dp1977
g87
g88
ssg69
g1966
sg62
(lp1978
S':'
asbag55
(g76
g57
NtRp1979
(dp1980
g60
(dp1981
sg69
g1966
sg62
(lp1982
g55
(g56
g57
NtRp1983
(dp1984
g60
(dp1985
g68
I5
ssg69
g1979
sg62
(lp1986
g55
(g64
g57
NtRp1987
(dp1988
g60
(dp1989
g68
I4
ssg69
Nsg62
(lp1990
g55
(g71
g57
NtRp1991
(dp1992
g60
(dp1993
sg69
g1987
sg62
(lp1994
g55
(g76
g57
NtRp1995
(dp1996
g60
(dp1997
g80
g81
ssg69
g1991
sg62
(lp1998
S'environ'
p1999
asbag55
(g76
g57
NtRp2000
(dp2001
g60
(dp2002
g87
g88
ssg69
g1991
sg62
(lp2003
S':'
asbag55
(g76
g57
NtRp2004
(dp2005
g60
(dp2006
sg69
g1991
sg62
(lp2007
g55
(g56
g57
NtRp2008
(dp2009
g60
(dp2010
g68
I4
ssg69
g2004
sg62
(lp2011
g55
(g64
g57
NtRp2012
(dp2013
g60
(dp2014
g68
I3
ssg69
Nsg62
(lp2015
g55
(g71
g57
NtRp2016
(dp2017
g60
(dp2018
sg69
g2012
sg62
(lp2019
g55
(g76
g57
NtRp2020
(dp2021
g60
(dp2022
g80
g81
ssg69
g2016
sg62
(lp2023
S'HTTP_ACCEPT'
p2024
asbag55
(g76
g57
NtRp2025
(dp2026
g60
(dp2027
g87
g88
ssg69
g2016
sg62
(lp2028
S':'
asbag55
(g76
g57
NtRp2029
(dp2030
g60
(dp2031
sg69
g2016
sg62
(lp2032
g55
(g56
g57
NtRp2033
(dp2034
g60
(dp2035
g68
I3
ssg69
g2029
sg62
(lp2036
g610
asbasbasbag55
(g71
g57
NtRp2037
(dp2038
g60
(dp2039
sg69
g2012
sg62
(lp2040
g55
(g76
g57
NtRp2041
(dp2042
g60
(dp2043
g80
g81
ssg69
g2037
sg62
(lp2044
S'HTTP_ACCEPT_CHARSET'
p2045
asbag55
(g76
g57
NtRp2046
(dp2047
g60
(dp2048
g87
g88
ssg69
g2037
sg62
(lp2049
S':'
asbag55
(g76
g57
NtRp2050
(dp2051
g60
(dp2052
sg69
g2037
sg62
(lp2053
g55
(g56
g57
NtRp2054
(dp2055
g60
(dp2056
g68
I3
ssg69
g2050
sg62
(lp2057
g632
asbasbasbag55
(g71
g57
NtRp2058
(dp2059
g60
(dp2060
sg69
g2012
sg62
(lp2061
g55
(g76
g57
NtRp2062
(dp2063
g60
(dp2064
g80
g81
ssg69
g2058
sg62
(lp2065
S'HTTP_ACCEPT_ENCODING'
p2066
asbag55
(g76
g57
NtRp2067
(dp2068
g60
(dp2069
g87
g88
ssg69
g2058
sg62
(lp2070
S':'
asbag55
(g76
g57
NtRp2071
(dp2072
g60
(dp2073
sg69
g2058
sg62
(lp2074
g55
(g56
g57
NtRp2075
(dp2076
g60
(dp2077
g68
I3
ssg69
g2071
sg62
(lp2078
g654
asbasbasbag55
(g71
g57
NtRp2079
(dp2080
g60
(dp2081
sg69
g2012
sg62
(lp2082
g55
(g76
g57
NtRp2083
(dp2084
g60
(dp2085
g80
g81
ssg69
g2079
sg62
(lp2086
S'HTTP_ACCEPT_LANGUAGE'
p2087
asbag55
(g76
g57
NtRp2088
(dp2089
g60
(dp2090
g87
g88
ssg69
g2079
sg62
(lp2091
S':'
asbag55
(g76
g57
NtRp2092
(dp2093
g60
(dp2094
sg69
g2079
sg62
(lp2095
g55
(g56
g57
NtRp2096
(dp2097
g60
(dp2098
g68
I3
ssg69
g2092
sg62
(lp2099
g676
asbasbasbag55
(g71
g57
NtRp2100
(dp2101
g60
(dp2102
sg69
g2012
sg62
(lp2103
g55
(g76
g57
NtRp2104
(dp2105
g60
(dp2106
g80
g81
ssg69
g2100
sg62
(lp2107
S'HTTP_CONNECTION'
p2108
asbag55
(g76
g57
NtRp2109
(dp2110
g60
(dp2111
g87
g88
ssg69
g2100
sg62
(lp2112
S':'
asbag55
(g76
g57
NtRp2113
(dp2114
g60
(dp2115
sg69
g2100
sg62
(lp2116
g55
(g56
g57
NtRp2117
(dp2118
g60
(dp2119
g68
I3
ssg69
g2113
sg62
(lp2120
g698
asbasbasbag55
(g71
g57
NtRp2121
(dp2122
g60
(dp2123
sg69
g2012
sg62
(lp2124
g55
(g76
g57
NtRp2125
(dp2126
g60
(dp2127
g80
g81
ssg69
g2121
sg62
(lp2128
S'HTTP_COOKIE'
p2129
asbag55
(g76
g57
NtRp2130
(dp2131
g60
(dp2132
g87
g88
ssg69
g2121
sg62
(lp2133
S':'
asbag55
(g76
g57
NtRp2134
(dp2135
g60
(dp2136
sg69
g2121
sg62
(lp2137
g55
(g56
g57
NtRp2138
(dp2139
g60
(dp2140
g68
I3
ssg69
g2134
sg62
(lp2141
g720
asbasbasbag55
(g71
g57
NtRp2142
(dp2143
g60
(dp2144
sg69
g2012
sg62
(lp2145
g55
(g76
g57
NtRp2146
(dp2147
g60
(dp2148
g80
g81
ssg69
g2142
sg62
(lp2149
S'HTTP_HOST'
p2150
asbag55
(g76
g57
NtRp2151
(dp2152
g60
(dp2153
g87
g88
ssg69
g2142
sg62
(lp2154
S':'
asbag55
(g76
g57
NtRp2155
(dp2156
g60
(dp2157
sg69
g2142
sg62
(lp2158
g55
(g56
g57
NtRp2159
(dp2160
g60
(dp2161
g68
I3
ssg69
g2155
sg62
(lp2162
g742
asbasbasbag55
(g71
g57
NtRp2163
(dp2164
g60
(dp2165
sg69
g2012
sg62
(lp2166
g55
(g76
g57
NtRp2167
(dp2168
g60
(dp2169
g80
g81
ssg69
g2163
sg62
(lp2170
S'HTTP_USER_AGENT'
p2171
asbag55
(g76
g57
NtRp2172
(dp2173
g60
(dp2174
g87
g88
ssg69
g2163
sg62
(lp2175
S':'
asbag55
(g76
g57
NtRp2176
(dp2177
g60
(dp2178
sg69
g2163
sg62
(lp2179
g55
(g56
g57
NtRp2180
(dp2181
g60
(dp2182
g68
I3
ssg69
g2176
sg62
(lp2183
g764
asbasbasbag55
(g71
g57
NtRp2184
(dp2185
g60
(dp2186
sg69
g2012
sg62
(lp2187
g55
(g76
g57
NtRp2188
(dp2189
g60
(dp2190
g80
g81
ssg69
g2184
sg62
(lp2191
S'PATH_INFO'
p2192
asbag55
(g76
g57
NtRp2193
(dp2194
g60
(dp2195
g87
g88
ssg69
g2184
sg62
(lp2196
S':'
asbag55
(g76
g57
NtRp2197
(dp2198
g60
(dp2199
sg69
g2184
sg62
(lp2200
g55
(g56
g57
NtRp2201
(dp2202
g60
(dp2203
g68
I3
ssg69
g2197
sg62
(lp2204
g828
asbasbasbag55
(g71
g57
NtRp2205
(dp2206
g60
(dp2207
sg69
g2012
sg62
(lp2208
g55
(g76
g57
NtRp2209
(dp2210
g60
(dp2211
g80
g81
ssg69
g2205
sg62
(lp2212
S'QUERY_STRING'
p2213
asbag55
(g76
g57
NtRp2214
(dp2215
g60
(dp2216
g87
g88
ssg69
g2205
sg62
(lp2217
S':'
asbag55
(g76
g57
NtRp2218
(dp2219
g60
(dp2220
sg69
g2205
sg62
(lp2221
g55
(g56
g57
NtRp2222
(dp2223
g60
(dp2224
g68
I3
ssg69
g2218
sg62
(lp2225
S''
asbasbasbag55
(g71
g57
NtRp2226
(dp2227
g60
(dp2228
sg69
g2012
sg62
(lp2229
g55
(g76
g57
NtRp2230
(dp2231
g60
(dp2232
g80
g81
ssg69
g2226
sg62
(lp2233
S'REMOTE_ADDR'
p2234
asbag55
(g76
g57
NtRp2235
(dp2236
g60
(dp2237
g87
g88
ssg69
g2226
sg62
(lp2238
S':'
asbag55
(g76
g57
NtRp2239
(dp2240
g60
(dp2241
sg69
g2226
sg62
(lp2242
g55
(g56
g57
NtRp2243
(dp2244
g60
(dp2245
g68
I3
ssg69
g2239
sg62
(lp2246
g188
asbasbasbag55
(g71
g57
NtRp2247
(dp2248
g60
(dp2249
sg69
g2012
sg62
(lp2250
g55
(g76
g57
NtRp2251
(dp2252
g60
(dp2253
g80
g81
ssg69
g2247
sg62
(lp2254
S'REMOTE_PORT'
p2255
asbag55
(g76
g57
NtRp2256
(dp2257
g60
(dp2258
g87
g88
ssg69
g2247
sg62
(lp2259
S':'
asbag55
(g76
g57
NtRp2260
(dp2261
g60
(dp2262
sg69
g2247
sg62
(lp2263
g55
(g56
g57
NtRp2264
(dp2265
g60
(dp2266
g68
I3
ssg69
g2260
sg62
(lp2267
g892
asbasbasbag55
(g71
g57
NtRp2268
(dp2269
g60
(dp2270
sg69
g2012
sg62
(lp2271
g55
(g76
g57
NtRp2272
(dp2273
g60
(dp2274
g80
g81
ssg69
g2268
sg62
(lp2275
S'REQUEST_METHOD'
p2276
asbag55
(g76
g57
NtRp2277
(dp2278
g60
(dp2279
g87
g88
ssg69
g2268
sg62
(lp2280
S':'
asbag55
(g76
g57
NtRp2281
(dp2282
g60
(dp2283
sg69
g2268
sg62
(lp2284
g55
(g56
g57
NtRp2285
(dp2286
g60
(dp2287
g68
I3
ssg69
g2281
sg62
(lp2288
g914
asbasbasbag55
(g71
g57
NtRp2289
(dp2290
g60
(dp2291
sg69
g2012
sg62
(lp2292
g55
(g76
g57
NtRp2293
(dp2294
g60
(dp2295
g80
g81
ssg69
g2289
sg62
(lp2296
S'SCRIPT_NAME'
p2297
asbag55
(g76
g57
NtRp2298
(dp2299
g60
(dp2300
g87
g88
ssg69
g2289
sg62
(lp2301
S':'
asbag55
(g76
g57
NtRp2302
(dp2303
g60
(dp2304
sg69
g2289
sg62
(lp2305
g55
(g56
g57
NtRp2306
(dp2307
g60
(dp2308
g68
I3
ssg69
g2302
sg62
(lp2309
S''
asbasbasbag55
(g71
g57
NtRp2310
(dp2311
g60
(dp2312
sg69
g2012
sg62
(lp2313
g55
(g76
g57
NtRp2314
(dp2315
g60
(dp2316
g80
g81
ssg69
g2310
sg62
(lp2317
S'SERVER_NAME'
p2318
asbag55
(g76
g57
NtRp2319
(dp2320
g60
(dp2321
g87
g88
ssg69
g2310
sg62
(lp2322
S':'
asbag55
(g76
g57
NtRp2323
(dp2324
g60
(dp2325
sg69
g2310
sg62
(lp2326
g55
(g56
g57
NtRp2327
(dp2328
g60
(dp2329
g68
I3
ssg69
g2323
sg62
(lp2330
g957
asbasbasbag55
(g71
g57
NtRp2331
(dp2332
g60
(dp2333
sg69
g2012
sg62
(lp2334
g55
(g76
g57
NtRp2335
(dp2336
g60
(dp2337
g80
g81
ssg69
g2331
sg62
(lp2338
S'SERVER_PORT'
p2339
asbag55
(g76
g57
NtRp2340
(dp2341
g60
(dp2342
g87
g88
ssg69
g2331
sg62
(lp2343
S':'
asbag55
(g76
g57
NtRp2344
(dp2345
g60
(dp2346
sg69
g2331
sg62
(lp2347
g55
(g56
g57
NtRp2348
(dp2349
g60
(dp2350
g68
I3
ssg69
g2344
sg62
(lp2351
g979
asbasbasbag55
(g71
g57
NtRp2352
(dp2353
g60
(dp2354
sg69
g2012
sg62
(lp2355
g55
(g76
g57
NtRp2356
(dp2357
g60
(dp2358
g80
g81
ssg69
g2352
sg62
(lp2359
S'SERVER_PROTOCOL'
p2360
asbag55
(g76
g57
NtRp2361
(dp2362
g60
(dp2363
g87
g88
ssg69
g2352
sg62
(lp2364
S':'
asbag55
(g76
g57
NtRp2365
(dp2366
g60
(dp2367
sg69
g2352
sg62
(lp2368
g55
(g56
g57
NtRp2369
(dp2370
g60
(dp2371
g68
I3
ssg69
g2365
sg62
(lp2372
g1001
asbasbasbag55
(g71
g57
NtRp2373
(dp2374
g60
(dp2375
sg69
g2012
sg62
(lp2376
g55
(g76
g57
NtRp2377
(dp2378
g60
(dp2379
g80
g81
ssg69
g2373
sg62
(lp2380
S'SERVER_SOFTWARE'
p2381
asbag55
(g76
g57
NtRp2382
(dp2383
g60
(dp2384
g87
g88
ssg69
g2373
sg62
(lp2385
S':'
asbag55
(g76
g57
NtRp2386
(dp2387
g60
(dp2388
sg69
g2373
sg62
(lp2389
g55
(g56
g57
NtRp2390
(dp2391
g60
(dp2392
g68
I3
ssg69
g2386
sg62
(lp2393
g1023
asbasbasbag55
(g71
g57
NtRp2394
(dp2395
g60
(dp2396
sg69
g2012
sg62
(lp2397
g55
(g76
g57
NtRp2398
(dp2399
g60
(dp2400
g80
g81
ssg69
g2394
sg62
(lp2401
S'wsgi.errors'
p2402
asbag55
(g76
g57
NtRp2403
(dp2404
g60
(dp2405
g87
g88
ssg69
g2394
sg62
(lp2406
S':'
asbag55
(g76
g57
NtRp2407
(dp2408
g60
(dp2409
sg69
g2394
sg62
(lp2410
g55
(g56
g57
NtRp2411
(dp2412
g60
(dp2413
g68
I3
ssg69
g2407
sg62
(lp2414
S"<open file '<stderr>', mode 'w' at 0x009000B0>"
p2415
asbasbasbag55
(g71
g57
NtRp2416
(dp2417
g60
(dp2418
sg69
g2012
sg62
(lp2419
g55
(g76
g57
NtRp2420
(dp2421
g60
(dp2422
g80
g81
ssg69
g2416
sg62
(lp2423
S'wsgi.file_wrapper'
p2424
asbag55
(g76
g57
NtRp2425
(dp2426
g60
(dp2427
g87
g88
ssg69
g2416
sg62
(lp2428
S':'
asbag55
(g76
g57
NtRp2429
(dp2430
g60
(dp2431
sg69
g2416
sg62
(lp2432
g55
(g56
g57
NtRp2433
(dp2434
g60
(dp2435
g68
I3
ssg69
g2429
sg62
(lp2436
S'<class wsgiref.util.FileWrapper at 0x016471E0>'
p2437
asbasbasbag55
(g71
g57
NtRp2438
(dp2439
g60
(dp2440
sg69
g2012
sg62
(lp2441
g55
(g76
g57
NtRp2442
(dp2443
g60
(dp2444
g80
g81
ssg69
g2438
sg62
(lp2445
S'wsgi.input'
p2446
asbag55
(g76
g57
NtRp2447
(dp2448
g60
(dp2449
g87
g88
ssg69
g2438
sg62
(lp2450
S':'
asbag55
(g76
g57
NtRp2451
(dp2452
g60
(dp2453
sg69
g2438
sg62
(lp2454
g55
(g56
g57
NtRp2455
(dp2456
g60
(dp2457
g68
I3
ssg69
g2451
sg62
(lp2458
S'<cStringIO.StringO object at 0x01A1EA60>'
p2459
asbasbasbag55
(g71
g57
NtRp2460
(dp2461
g60
(dp2462
sg69
g2012
sg62
(lp2463
g55
(g76
g57
NtRp2464
(dp2465
g60
(dp2466
g80
g81
ssg69
g2460
sg62
(lp2467
S'wsgi.multiprocess'
p2468
asbag55
(g76
g57
NtRp2469
(dp2470
g60
(dp2471
g87
g88
ssg69
g2460
sg62
(lp2472
S':'
asbag55
(g76
g57
NtRp2473
(dp2474
g60
(dp2475
sg69
g2460
sg62
(lp2476
g55
(g56
g57
NtRp2477
(dp2478
g60
(dp2479
g68
I3
ssg69
g2473
sg62
(lp2480
g98
asbasbasbag55
(g71
g57
NtRp2481
(dp2482
g60
(dp2483
sg69
g2012
sg62
(lp2484
g55
(g76
g57
NtRp2485
(dp2486
g60
(dp2487
g80
g81
ssg69
g2481
sg62
(lp2488
S'wsgi.multithread'
p2489
asbag55
(g76
g57
NtRp2490
(dp2491
g60
(dp2492
g87
g88
ssg69
g2481
sg62
(lp2493
S':'
asbag55
(g76
g57
NtRp2494
(dp2495
g60
(dp2496
sg69
g2481
sg62
(lp2497
g55
(g56
g57
NtRp2498
(dp2499
g60
(dp2500
g68
I3
ssg69
g2494
sg62
(lp2501
g1263
asbasbasbag55
(g71
g57
NtRp2502
(dp2503
g60
(dp2504
sg69
g2012
sg62
(lp2505
g55
(g76
g57
NtRp2506
(dp2507
g60
(dp2508
g80
g81
ssg69
g2502
sg62
(lp2509
S'wsgi.run_once'
p2510
asbag55
(g76
g57
NtRp2511
(dp2512
g60
(dp2513
g87
g88
ssg69
g2502
sg62
(lp2514
S':'
asbag55
(g76
g57
NtRp2515
(dp2516
g60
(dp2517
sg69
g2502
sg62
(lp2518
g55
(g56
g57
NtRp2519
(dp2520
g60
(dp2521
g68
I3
ssg69
g2515
sg62
(lp2522
g98
asbasbasbag55
(g71
g57
NtRp2523
(dp2524
g60
(dp2525
sg69
g2012
sg62
(lp2526
g55
(g76
g57
NtRp2527
(dp2528
g60
(dp2529
g80
g81
ssg69
g2523
sg62
(lp2530
S'wsgi.url_scheme'
p2531
asbag55
(g76
g57
NtRp2532
(dp2533
g60
(dp2534
g87
g88
ssg69
g2523
sg62
(lp2535
S':'
asbag55
(g76
g57
NtRp2536
(dp2537
g60
(dp2538
sg69
g2523
sg62
(lp2539
g55
(g56
g57
NtRp2540
(dp2541
g60
(dp2542
g68
I3
ssg69
g2536
sg62
(lp2543
g1306
asbasbasbag55
(g71
g57
NtRp2544
(dp2545
g60
(dp2546
sg69
g2012
sg62
(lp2547
g55
(g76
g57
NtRp2548
(dp2549
g60
(dp2550
g80
g81
ssg69
g2544
sg62
(lp2551
S'wsgi.version'
p2552
asbag55
(g76
g57
NtRp2553
(dp2554
g60
(dp2555
g87
g88
ssg69
g2544
sg62
(lp2556
S':'
asbag55
(g76
g57
NtRp2557
(dp2558
g60
(dp2559
sg69
g2544
sg62
(lp2560
g55
(g56
g57
NtRp2561
(dp2562
g60
(dp2563
g68
I3
ssg69
g2557
sg62
(lp2564
S'1'
asbasbasbasbasbasbasbasbasbasbasbasbasbsS'frames'
p2565
(lp2566
(dp2567
S'file'
p2568
S'C:\\Documents and Settings\\Guest\\Desktop\\web2py_win\\web2py\\gluon\\restricted.py'
p2569
sS'dump'
p2570
(dp2571
sS'lnum'
p2572
I205
sS'lines'
p2573
(dp2574
sS'call'
p2575
S'(code=\'import datetime, socket, os, sys\\nfrom ConfigPars...rted %s into taxon: %s" % (syn, i)\\n    \\n        \\n\', environment={\'A\': <class \'gluon.html.A\'>, \'B\': <class \'gluon.html.B\'>, \'BEAUTIFY\': <class \'gluon.html.BEAUTIFY\'>, \'BODY\': <class \'gluon.html.BODY\'>, \'BR\': <class \'gluon.html.BR\'>, \'BUTTON\': <class \'gluon.html.BUTTON\'>, \'CAT\': <class \'gluon.html.CAT\'>, \'CENTER\': <class \'gluon.html.CENTER\'>, \'CLEANUP\': <class \'gluon.validators.CLEANUP\'>, \'CODE\': <class \'gluon.html.CODE\'>, ...}, layer=r\'C:\\Documents and Settings\\Guest\\Desktop\\web2py_win\\web2py\\applications\\Phylografter\\models\\db.py\')'
p2576
sS'func'
p2577
S'restricted'
p2578
sa(dp2579
g2568
S'C:\\Documents and Settings\\Guest\\Desktop\\web2py_win\\web2py\\applications\\Phylografter\\models\\db.py'
p2580
sg2570
(dp2581
sg2572
I22
sg2573
(dp2582
I17
S'    password = conf.get("db", "password")'
p2583
sI18
S'    dbname = conf.get("db", "dbname")'
p2584
sI19
S''
sI20
S'else:'
p2585
sI21
S'    conf.read("applications/%s/private/config" % request.application)'
p2586
sI22
S'    host = conf.get("db", "host")'
p2587
sI23
S'    user = conf.get("db", "user")'
p2588
sI24
S'    password = conf.get("db", "password")'
p2589
sI25
S'    dbname = conf.get("db", "dbname")'
p2590
sI26
S''
ssg2575
S'()'
p2591
sg2577
S'<module>'
p2592
sa(dp2593
g2568
S'C:\\Documents and Settings\\Guest\\Desktop\\web2py_win\\web2py\\ConfigParser.pyc'
p2594
sg2570
(dp2595
sg2572
I511
sg2573
(dp2596
sg2575
S"(self=<ConfigParser.SafeConfigParser instance at 0x01AC7300>, section='db', option='host', raw=False, vars=None)"
p2597
sg2577
S'get'
p2598
sasS'pyver'
p2599
S'Python 2.5.4: C:\\Documents and Settings\\Guest\\Desktop\\web2py_win\\web2py\\web2py.exe'
p2600
sS'session'
p2601
g55
(g56
g57
NtRp2602
(dp2603
g60
(dp2604
sg62
(lp2605
g55
(g64
g57
NtRp2606
(dp2607
g60
(dp2608
g68
I5
ssg69
Nsg62
(lp2609
sbasbsS'etype'
p2610
S"<class 'ConfigParser.NoSectionError'>"
p2611
sS'date'
p2612
S'Wed Jun 13 12:28:10 2012'
p2613
sS'response'
p2614
g55
(g56
g57
NtRp2615
(dp2616
g60
(dp2617
sg62
(lp2618
g55
(g64
g57
NtRp2619
(dp2620
g60
(dp2621
g68
I5
ssg69
Nsg62
(lp2622
g55
(g71
g57
NtRp2623
(dp2624
g60
(dp2625
sg69
g2619
sg62
(lp2626
g55
(g76
g57
NtRp2627
(dp2628
g60
(dp2629
g80
g81
ssg69
g2623
sg62
(lp2630
g153
asbag55
(g76
g57
NtRp2631
(dp2632
g60
(dp2633
g87
g88
ssg69
g2623
sg62
(lp2634
S':'
asbag55
(g76
g57
NtRp2635
(dp2636
g60
(dp2637
sg69
g2623
sg62
(lp2638
g55
(g56
g57
NtRp2639
(dp2640
g60
(dp2641
g68
I5
ssg69
g2635
sg62
(lp2642
S'<cStringIO.StringO object at 0x01A1E9E0>'
p2643
asbasbasbag55
(g71
g57
NtRp2644
(dp2645
g60
(dp2646
sg69
g2619
sg62
(lp2647
g55
(g76
g57
NtRp2648
(dp2649
g60
(dp2650
g80
g81
ssg69
g2644
sg62
(lp2651
g219
asbag55
(g76
g57
NtRp2652
(dp2653
g60
(dp2654
g87
g88
ssg69
g2644
sg62
(lp2655
S':'
asbag55
(g76
g57
NtRp2656
(dp2657
g60
(dp2658
sg69
g2644
sg62
(lp2659
g55
(g56
g57
NtRp2660
(dp2661
g60
(dp2662
g68
I5
ssg69
g2656
sg62
(lp2663
g55
(g64
g57
NtRp2664
(dp2665
g60
(dp2666
g68
I4
ssg69
Nsg62
(lp2667
g55
(g71
g57
NtRp2668
(dp2669
g60
(dp2670
sg69
g2664
sg62
(lp2671
g55
(g76
g57
NtRp2672
(dp2673
g60
(dp2674
g80
g81
ssg69
g2668
sg62
(lp2675
S'session_id_phylografter'
p2676
asbag55
(g76
g57
NtRp2677
(dp2678
g60
(dp2679
g87
g88
ssg69
g2668
sg62
(lp2680
S':'
asbag55
(g76
g57
NtRp2681
(dp2682
g60
(dp2683
sg69
g2668
sg62
(lp2684
g55
(g56
g57
NtRp2685
(dp2686
g60
(dp2687
g68
I4
ssg69
g2681
sg62
(lp2688
g55
(g64
g57
NtRp2689
(dp2690
g60
(dp2691
g68
I3
ssg69
Nsg62
(lp2692
g55
(g71
g57
NtRp2693
(dp2694
g60
(dp2695
sg69
g2689
sg62
(lp2696
g55
(g76
g57
NtRp2697
(dp2698
g60
(dp2699
g80
g81
ssg69
g2693
sg62
(lp2700
g269
asbag55
(g76
g57
NtRp2701
(dp2702
g60
(dp2703
g87
g88
ssg69
g2693
sg62
(lp2704
S':'
asbag55
(g76
g57
NtRp2705
(dp2706
g60
(dp2707
sg69
g2693
sg62
(lp2708
g55
(g56
g57
NtRp2709
(dp2710
g60
(dp2711
g68
I3
ssg69
g2705
sg62
(lp2712
S''
asbasbasbag55
(g71
g57
NtRp2713
(dp2714
g60
(dp2715
sg69
g2689
sg62
(lp2716
g55
(g76
g57
NtRp2717
(dp2718
g60
(dp2719
g80
g81
ssg69
g2713
sg62
(lp2720
g290
asbag55
(g76
g57
NtRp2721
(dp2722
g60
(dp2723
g87
g88
ssg69
g2713
sg62
(lp2724
S':'
asbag55
(g76
g57
NtRp2725
(dp2726
g60
(dp2727
sg69
g2713
sg62
(lp2728
g55
(g56
g57
NtRp2729
(dp2730
g60
(dp2731
g68
I3
ssg69
g2725
sg62
(lp2732
S''
asbasbasbag55
(g71
g57
NtRp2733
(dp2734
g60
(dp2735
sg69
g2689
sg62
(lp2736
g55
(g76
g57
NtRp2737
(dp2738
g60
(dp2739
g80
g81
ssg69
g2733
sg62
(lp2740
g311
asbag55
(g76
g57
NtRp2741
(dp2742
g60
(dp2743
g87
g88
ssg69
g2733
sg62
(lp2744
S':'
asbag55
(g76
g57
NtRp2745
(dp2746
g60
(dp2747
sg69
g2733
sg62
(lp2748
g55
(g56
g57
NtRp2749
(dp2750
g60
(dp2751
g68
I3
ssg69
g2745
sg62
(lp2752
S''
asbasbasbag55
(g71
g57
NtRp2753
(dp2754
g60
(dp2755
sg69
g2689
sg62
(lp2756
g55
(g76
g57
NtRp2757
(dp2758
g60
(dp2759
g80
g81
ssg69
g2753
sg62
(lp2760
g332
asbag55
(g76
g57
NtRp2761
(dp2762
g60
(dp2763
g87
g88
ssg69
g2753
sg62
(lp2764
S':'
asbag55
(g76
g57
NtRp2765
(dp2766
g60
(dp2767
sg69
g2753
sg62
(lp2768
g55
(g56
g57
NtRp2769
(dp2770
g60
(dp2771
g68
I3
ssg69
g2765
sg62
(lp2772
S''
asbasbasbag55
(g71
g57
NtRp2773
(dp2774
g60
(dp2775
sg69
g2689
sg62
(lp2776
g55
(g76
g57
NtRp2777
(dp2778
g60
(dp2779
g80
g81
ssg69
g2773
sg62
(lp2780
g353
asbag55
(g76
g57
NtRp2781
(dp2782
g60
(dp2783
g87
g88
ssg69
g2773
sg62
(lp2784
S':'
asbag55
(g76
g57
NtRp2785
(dp2786
g60
(dp2787
sg69
g2773
sg62
(lp2788
g55
(g56
g57
NtRp2789
(dp2790
g60
(dp2791
g68
I3
ssg69
g2785
sg62
(lp2792
S'/'
asbasbasbag55
(g71
g57
NtRp2793
(dp2794
g60
(dp2795
sg69
g2689
sg62
(lp2796
g55
(g76
g57
NtRp2797
(dp2798
g60
(dp2799
g80
g81
ssg69
g2793
sg62
(lp2800
g374
asbag55
(g76
g57
NtRp2801
(dp2802
g60
(dp2803
g87
g88
ssg69
g2793
sg62
(lp2804
S':'
asbag55
(g76
g57
NtRp2805
(dp2806
g60
(dp2807
sg69
g2793
sg62
(lp2808
g55
(g56
g57
NtRp2809
(dp2810
g60
(dp2811
g68
I3
ssg69
g2805
sg62
(lp2812
S''
asbasbasbag55
(g71
g57
NtRp2813
(dp2814
g60
(dp2815
sg69
g2689
sg62
(lp2816
g55
(g76
g57
NtRp2817
(dp2818
g60
(dp2819
g80
g81
ssg69
g2813
sg62
(lp2820
g395
asbag55
(g76
g57
NtRp2821
(dp2822
g60
(dp2823
g87
g88
ssg69
g2813
sg62
(lp2824
S':'
asbag55
(g76
g57
NtRp2825
(dp2826
g60
(dp2827
sg69
g2813
sg62
(lp2828
g55
(g56
g57
NtRp2829
(dp2830
g60
(dp2831
g68
I3
ssg69
g2825
sg62
(lp2832
S''
asbasbasbasbasbasbasbasbasbasbasbag55
(g71
g57
NtRp2833
(dp2834
g60
(dp2835
sg69
g2619
sg62
(lp2836
g55
(g76
g57
NtRp2837
(dp2838
g60
(dp2839
g80
g81
ssg69
g2833
sg62
(lp2840
S'delimiters'
p2841
asbag55
(g76
g57
NtRp2842
(dp2843
g60
(dp2844
g87
g88
ssg69
g2833
sg62
(lp2845
S':'
asbag55
(g76
g57
NtRp2846
(dp2847
g60
(dp2848
sg69
g2833
sg62
(lp2849
g55
(g56
g57
NtRp2850
(dp2851
g60
(dp2852
g68
I5
ssg69
g2846
sg62
(lp2853
g55
(g64
g57
NtRp2854
(dp2855
g60
(dp2856
g68
I4
ssg69
Nsg62
(lp2857
g55
(g71
g57
NtRp2858
(dp2859
g60
(dp2860
sg69
g2854
sg62
(lp2861
g55
(g76
g57
NtRp2862
(dp2863
g60
(dp2864
sg69
g2858
sg62
(lp2865
g55
(g56
g57
NtRp2866
(dp2867
g60
(dp2868
g68
I4
ssg69
g2862
sg62
(lp2869
S'{{'
p2870
asbasbasbag55
(g71
g57
NtRp2871
(dp2872
g60
(dp2873
sg69
g2854
sg62
(lp2874
g55
(g76
g57
NtRp2875
(dp2876
g60
(dp2877
sg69
g2871
sg62
(lp2878
g55
(g56
g57
NtRp2879
(dp2880
g60
(dp2881
g68
I4
ssg69
g2875
sg62
(lp2882
S'}}'
p2883
asbasbasbasbasbasbasbag55
(g71
g57
NtRp2884
(dp2885
g60
(dp2886
sg69
g2619
sg62
(lp2887
g55
(g76
g57
NtRp2888
(dp2889
g60
(dp2890
g80
g81
ssg69
g2884
sg62
(lp2891
S'files'
p2892
asbag55
(g76
g57
NtRp2893
(dp2894
g60
(dp2895
g87
g88
ssg69
g2884
sg62
(lp2896
S':'
asbag55
(g76
g57
NtRp2897
(dp2898
g60
(dp2899
sg69
g2884
sg62
(lp2900
g55
(g56
g57
NtRp2901
(dp2902
g60
(dp2903
g68
I5
ssg69
g2897
sg62
(lp2904
g55
(g64
g57
NtRp2905
(dp2906
g60
(dp2907
g68
I4
ssg69
Nsg62
(lp2908
sbasbasbasbag55
(g71
g57
NtRp2909
(dp2910
g60
(dp2911
sg69
g2619
sg62
(lp2912
g55
(g76
g57
NtRp2913
(dp2914
g60
(dp2915
g80
g81
ssg69
g2909
sg62
(lp2916
S'flash'
p2917
asbag55
(g76
g57
NtRp2918
(dp2919
g60
(dp2920
g87
g88
ssg69
g2909
sg62
(lp2921
S':'
asbag55
(g76
g57
NtRp2922
(dp2923
g60
(dp2924
sg69
g2909
sg62
(lp2925
g55
(g56
g57
NtRp2926
(dp2927
g60
(dp2928
g68
I5
ssg69
g2922
sg62
(lp2929
S''
asbasbasbag55
(g71
g57
NtRp2930
(dp2931
g60
(dp2932
sg69
g2619
sg62
(lp2933
g55
(g76
g57
NtRp2934
(dp2935
g60
(dp2936
g80
g81
ssg69
g2930
sg62
(lp2937
S'generic_patterns'
p2938
asbag55
(g76
g57
NtRp2939
(dp2940
g60
(dp2941
g87
g88
ssg69
g2930
sg62
(lp2942
S':'
asbag55
(g76
g57
NtRp2943
(dp2944
g60
(dp2945
sg69
g2930
sg62
(lp2946
g55
(g56
g57
NtRp2947
(dp2948
g60
(dp2949
g68
I5
ssg69
g2943
sg62
(lp2950
g55
(g64
g57
NtRp2951
(dp2952
g60
(dp2953
g68
I4
ssg69
Nsg62
(lp2954
sbasbasbasbag55
(g71
g57
NtRp2955
(dp2956
g60
(dp2957
sg69
g2619
sg62
(lp2958
g55
(g76
g57
NtRp2959
(dp2960
g60
(dp2961
g80
g81
ssg69
g2955
sg62
(lp2962
S'headers'
p2963
asbag55
(g76
g57
NtRp2964
(dp2965
g60
(dp2966
g87
g88
ssg69
g2955
sg62
(lp2967
S':'
asbag55
(g76
g57
NtRp2968
(dp2969
g60
(dp2970
sg69
g2955
sg62
(lp2971
g55
(g56
g57
NtRp2972
(dp2973
g60
(dp2974
g68
I5
ssg69
g2968
sg62
(lp2975
g55
(g64
g57
NtRp2976
(dp2977
g60
(dp2978
g68
I4
ssg69
Nsg62
(lp2979
g55
(g71
g57
NtRp2980
(dp2981
g60
(dp2982
sg69
g2976
sg62
(lp2983
g55
(g76
g57
NtRp2984
(dp2985
g60
(dp2986
g80
g81
ssg69
g2980
sg62
(lp2987
S'Cache-Control'
p2988
asbag55
(g76
g57
NtRp2989
(dp2990
g60
(dp2991
g87
g88
ssg69
g2980
sg62
(lp2992
S':'
asbag55
(g76
g57
NtRp2993
(dp2994
g60
(dp2995
sg69
g2980
sg62
(lp2996
g55
(g56
g57
NtRp2997
(dp2998
g60
(dp2999
g68
I4
ssg69
g2993
sg62
(lp3000
S'no-store, no-cache, must-revalidate, post-check=0, pre-check=0'
p3001
asbasbasbag55
(g71
g57
NtRp3002
(dp3003
g60
(dp3004
sg69
g2976
sg62
(lp3005
g55
(g76
g57
NtRp3006
(dp3007
g60
(dp3008
g80
g81
ssg69
g3002
sg62
(lp3009
S'Content-Type'
p3010
asbag55
(g76
g57
NtRp3011
(dp3012
g60
(dp3013
g87
g88
ssg69
g3002
sg62
(lp3014
S':'
asbag55
(g76
g57
NtRp3015
(dp3016
g60
(dp3017
sg69
g3002
sg62
(lp3018
g55
(g56
g57
NtRp3019
(dp3020
g60
(dp3021
g68
I4
ssg69
g3015
sg62
(lp3022
S'text/html; charset=utf-8'
p3023
asbasbasbag55
(g71
g57
NtRp3024
(dp3025
g60
(dp3026
sg69
g2976
sg62
(lp3027
g55
(g76
g57
NtRp3028
(dp3029
g60
(dp3030
g80
g81
ssg69
g3024
sg62
(lp3031
S'Expires'
p3032
asbag55
(g76
g57
NtRp3033
(dp3034
g60
(dp3035
g87
g88
ssg69
g3024
sg62
(lp3036
S':'
asbag55
(g76
g57
NtRp3037
(dp3038
g60
(dp3039
sg69
g3024
sg62
(lp3040
g55
(g56
g57
NtRp3041
(dp3042
g60
(dp3043
g68
I4
ssg69
g3037
sg62
(lp3044
S'Wed, 13 Jun 2012 17:28:09 GMT'
p3045
asbasbasbag55
(g71
g57
NtRp3046
(dp3047
g60
(dp3048
sg69
g2976
sg62
(lp3049
g55
(g76
g57
NtRp3050
(dp3051
g60
(dp3052
g80
g81
ssg69
g3046
sg62
(lp3053
S'Pragma'
p3054
asbag55
(g76
g57
NtRp3055
(dp3056
g60
(dp3057
g87
g88
ssg69
g3046
sg62
(lp3058
S':'
asbag55
(g76
g57
NtRp3059
(dp3060
g60
(dp3061
sg69
g3046
sg62
(lp3062
g55
(g56
g57
NtRp3063
(dp3064
g60
(dp3065
g68
I4
ssg69
g3059
sg62
(lp3066
S'no-cache'
p3067
asbasbasbag55
(g71
g57
NtRp3068
(dp3069
g60
(dp3070
sg69
g2976
sg62
(lp3071
g55
(g76
g57
NtRp3072
(dp3073
g60
(dp3074
g80
g81
ssg69
g3068
sg62
(lp3075
S'X-Powered-By'
p3076
asbag55
(g76
g57
NtRp3077
(dp3078
g60
(dp3079
g87
g88
ssg69
g3068
sg62
(lp3080
S':'
asbag55
(g76
g57
NtRp3081
(dp3082
g60
(dp3083
sg69
g3068
sg62
(lp3084
g55
(g56
g57
NtRp3085
(dp3086
g60
(dp3087
g68
I4
ssg69
g3081
sg62
(lp3088
S'web2py'
p3089
asbasbasbasbasbasbasbag55
(g71
g57
NtRp3090
(dp3091
g60
(dp3092
sg69
g2619
sg62
(lp3093
g55
(g76
g57
NtRp3094
(dp3095
g60
(dp3096
g80
g81
ssg69
g3090
sg62
(lp3097
S'menu'
p3098
asbag55
(g76
g57
NtRp3099
(dp3100
g60
(dp3101
g87
g88
ssg69
g3090
sg62
(lp3102
S':'
asbag55
(g76
g57
NtRp3103
(dp3104
g60
(dp3105
sg69
g3090
sg62
(lp3106
g55
(g56
g57
NtRp3107
(dp3108
g60
(dp3109
g68
I5
ssg69
g3103
sg62
(lp3110
g55
(g64
g57
NtRp3111
(dp3112
g60
(dp3113
g68
I4
ssg69
Nsg62
(lp3114
sbasbasbasbag55
(g71
g57
NtRp3115
(dp3116
g60
(dp3117
sg69
g2619
sg62
(lp3118
g55
(g76
g57
NtRp3119
(dp3120
g60
(dp3121
g80
g81
ssg69
g3115
sg62
(lp3122
S'meta'
p3123
asbag55
(g76
g57
NtRp3124
(dp3125
g60
(dp3126
g87
g88
ssg69
g3115
sg62
(lp3127
S':'
asbag55
(g76
g57
NtRp3128
(dp3129
g60
(dp3130
sg69
g3115
sg62
(lp3131
g55
(g56
g57
NtRp3132
(dp3133
g60
(dp3134
g68
I5
ssg69
g3128
sg62
(lp3135
g55
(g64
g57
NtRp3136
(dp3137
g60
(dp3138
g68
I4
ssg69
Nsg62
(lp3139
sbasbasbasbag55
(g71
g57
NtRp3140
(dp3141
g60
(dp3142
sg69
g2619
sg62
(lp3143
g55
(g76
g57
NtRp3144
(dp3145
g60
(dp3146
g80
g81
ssg69
g3140
sg62
(lp3147
S'postprocessing'
p3148
asbag55
(g76
g57
NtRp3149
(dp3150
g60
(dp3151
g87
g88
ssg69
g3140
sg62
(lp3152
S':'
asbag55
(g76
g57
NtRp3153
(dp3154
g60
(dp3155
sg69
g3140
sg62
(lp3156
g55
(g56
g57
NtRp3157
(dp3158
g60
(dp3159
g68
I5
ssg69
g3153
sg62
(lp3160
g55
(g64
g57
NtRp3161
(dp3162
g60
(dp3163
g68
I4
ssg69
Nsg62
(lp3164
sbasbasbasbag55
(g71
g57
NtRp3165
(dp3166
g60
(dp3167
sg69
g2619
sg62
(lp3168
g55
(g76
g57
NtRp3169
(dp3170
g60
(dp3171
g80
g81
ssg69
g3165
sg62
(lp3172
S'session_filename'
p3173
asbag55
(g76
g57
NtRp3174
(dp3175
g60
(dp3176
g87
g88
ssg69
g3165
sg62
(lp3177
S':'
asbag55
(g76
g57
NtRp3178
(dp3179
g60
(dp3180
sg69
g3165
sg62
(lp3181
g55
(g56
g57
NtRp3182
(dp3183
g60
(dp3184
g68
I5
ssg69
g3178
sg62
(lp3185
S'C:\\Documents and Settings\\Guest\\Desktop\\web2py_win\\web2py\\applications\\Phylografter\\sessions\\127.0.0.1-e4b379ca-5c3a-48a6-9153-ec6016d0fe68'
p3186
asbasbasbag55
(g71
g57
NtRp3187
(dp3188
g60
(dp3189
sg69
g2619
sg62
(lp3190
g55
(g76
g57
NtRp3191
(dp3192
g60
(dp3193
g80
g81
ssg69
g3187
sg62
(lp3194
S'session_id'
p3195
asbag55
(g76
g57
NtRp3196
(dp3197
g60
(dp3198
g87
g88
ssg69
g3187
sg62
(lp3199
S':'
asbag55
(g76
g57
NtRp3200
(dp3201
g60
(dp3202
sg69
g3187
sg62
(lp3203
g55
(g56
g57
NtRp3204
(dp3205
g60
(dp3206
g68
I5
ssg69
g3200
sg62
(lp3207
S'127.0.0.1-e4b379ca-5c3a-48a6-9153-ec6016d0fe68'
p3208
asbasbasbag55
(g71
g57
NtRp3209
(dp3210
g60
(dp3211
sg69
g2619
sg62
(lp3212
g55
(g76
g57
NtRp3213
(dp3214
g60
(dp3215
g80
g81
ssg69
g3209
sg62
(lp3216
S'session_id_name'
p3217
asbag55
(g76
g57
NtRp3218
(dp3219
g60
(dp3220
g87
g88
ssg69
g3209
sg62
(lp3221
S':'
asbag55
(g76
g57
NtRp3222
(dp3223
g60
(dp3224
sg69
g3209
sg62
(lp3225
g55
(g56
g57
NtRp3226
(dp3227
g60
(dp3228
g68
I5
ssg69
g3222
sg62
(lp3229
g2676
asbasbasbag55
(g71
g57
NtRp3230
(dp3231
g60
(dp3232
sg69
g2619
sg62
(lp3233
g55
(g76
g57
NtRp3234
(dp3235
g60
(dp3236
g80
g81
ssg69
g3230
sg62
(lp3237
S'session_new'
p3238
asbag55
(g76
g57
NtRp3239
(dp3240
g60
(dp3241
g87
g88
ssg69
g3230
sg62
(lp3242
S':'
asbag55
(g76
g57
NtRp3243
(dp3244
g60
(dp3245
sg69
g3230
sg62
(lp3246
g55
(g56
g57
NtRp3247
(dp3248
g60
(dp3249
g68
I5
ssg69
g3243
sg62
(lp3250
g1263
asbasbasbag55
(g71
g57
NtRp3251
(dp3252
g60
(dp3253
sg69
g2619
sg62
(lp3254
g55
(g76
g57
NtRp3255
(dp3256
g60
(dp3257
g80
g81
ssg69
g3251
sg62
(lp3258
S'status'
p3259
asbag55
(g76
g57
NtRp3260
(dp3261
g60
(dp3262
g87
g88
ssg69
g3251
sg62
(lp3263
S':'
asbag55
(g76
g57
NtRp3264
(dp3265
g60
(dp3266
sg69
g3251
sg62
(lp3267
g55
(g56
g57
NtRp3268
(dp3269
g60
(dp3270
g68
I5
ssg69
g3264
sg62
(lp3271
S'200'
p3272
asbasbasbag55
(g71
g57
NtRp3273
(dp3274
g60
(dp3275
sg69
g2619
sg62
(lp3276
g55
(g76
g57
NtRp3277
(dp3278
g60
(dp3279
g80
g81
ssg69
g3273
sg62
(lp3280
g1927
asbag55
(g76
g57
NtRp3281
(dp3282
g60
(dp3283
g87
g88
ssg69
g3273
sg62
(lp3284
S':'
asbag55
(g76
g57
NtRp3285
(dp3286
g60
(dp3287
sg69
g3273
sg62
(lp3288
g55
(g56
g57
NtRp3289
(dp3290
g60
(dp3291
g68
I5
ssg69
g3285
sg62
(lp3292
g1940
asbasbasbag55
(g71
g57
NtRp3293
(dp3294
g60
(dp3295
sg69
g2619
sg62
(lp3296
g55
(g76
g57
NtRp3297
(dp3298
g60
(dp3299
g80
g81
ssg69
g3293
sg62
(lp3300
S'view'
p3301
asbag55
(g76
g57
NtRp3302
(dp3303
g60
(dp3304
g87
g88
ssg69
g3293
sg62
(lp3305
S':'
asbag55
(g76
g57
NtRp3306
(dp3307
g60
(dp3308
sg69
g3293
sg62
(lp3309
g55
(g56
g57
NtRp3310
(dp3311
g60
(dp3312
g68
I5
ssg69
g3306
sg62
(lp3313
S'default/index.html'
p3314
asbasbasbasbasbsS'locals'
p3315
(dp3316
S'option'
p3317
S"'host'"
p3318
sg1949
S'None'
p3319
sS'self'
p3320
S'<ConfigParser.SafeConfigParser instance at 0x01AC7300>'
p3321
sS'raw'
p3322
g98
sg34
S"'db'"
p3323
sS'd'
S"{'dbname': 'phylografter', 'host': 'localhost', 'password': 'guest', 'user': 'guest'}"
p3324
sssS'traceback'
p3325
S'Traceback (most recent call last):\n  File "gluon/restricted.py", line 205, in restricted\n  File "C:\\Documents and Settings\\Guest\\Desktop\\web2py_win\\web2py\\applications\\Phylografter\\models\\db.py", line 22, in <module>\n  File "ConfigParser.pyc", line 511, in get\nNoSectionError: No section: \'db\'\n'
p3326
s.